
spp:     file format elf64-x86-64

Contents of section .interp:
 400238 2f6c6962 36342f6c 642d6c69 6e75782d  /lib64/ld-linux-
 400248 7838362d 36342e73 6f2e3200           x86-64.so.2.    
Contents of section .note.ABI-tag:
 400254 04000000 10000000 01000000 474e5500  ............GNU.
 400264 00000000 02000000 06000000 20000000  ............ ...
Contents of section .note.gnu.build-id:
 400274 04000000 14000000 03000000 474e5500  ............GNU.
 400284 e7722327 d6b023dc 949a8cde 77c26a2f  .r#'..#.....w.j/
 400294 bd5cf4b5                             .\..            
Contents of section .gnu.hash:
 400298 02000000 1a000000 01000000 06000000  ................
 4002a8 00002000 80000000 00000000 1a000000  .. .............
 4002b8 67556110                             gUa.            
Contents of section .dynsym:
 4002c0 00000000 00000000 00000000 00000000  ................
 4002d0 00000000 00000000 bc000000 12000000  ................
 4002e0 00000000 00000000 00000000 00000000  ................
 4002f0 0b000000 12000000 00000000 00000000  ................
 400300 00000000 00000000 24000000 12000000  ........$.......
 400310 00000000 00000000 00000000 00000000  ................
 400320 60000000 12000000 00000000 00000000  `...............
 400330 00000000 00000000 6f000000 12000000  ........o.......
 400340 00000000 00000000 00000000 00000000  ................
 400350 2e000000 12000000 00000000 00000000  ................
 400360 00000000 00000000 75000000 12000000  ........u.......
 400370 00000000 00000000 00000000 00000000  ................
 400380 45000000 12000000 00000000 00000000  E...............
 400390 00000000 00000000 53000000 12000000  ........S.......
 4003a0 00000000 00000000 00000000 00000000  ................
 4003b0 98000000 12000000 00000000 00000000  ................
 4003c0 00000000 00000000 1f000000 12000000  ................
 4003d0 00000000 00000000 00000000 00000000  ................
 4003e0 81000000 12000000 00000000 00000000  ................
 4003f0 00000000 00000000 aa000000 12000000  ................
 400400 00000000 00000000 00000000 00000000  ................
 400410 59000000 12000000 00000000 00000000  Y...............
 400420 00000000 00000000 a3000000 12000000  ................
 400430 00000000 00000000 00000000 00000000  ................
 400440 67000000 12000000 00000000 00000000  g...............
 400450 00000000 00000000 c1000000 20000000  ............ ...
 400460 00000000 00000000 00000000 00000000  ................
 400470 7a000000 12000000 00000000 00000000  z...............
 400480 00000000 00000000 17000000 12000000  ................
 400490 00000000 00000000 00000000 00000000  ................
 4004a0 90000000 12000000 00000000 00000000  ................
 4004b0 00000000 00000000 9e000000 12000000  ................
 4004c0 00000000 00000000 00000000 00000000  ................
 4004d0 4c000000 12000000 00000000 00000000  L...............
 4004e0 00000000 00000000 89000000 12000000  ................
 4004f0 00000000 00000000 00000000 00000000  ................
 400500 12000000 12000000 00000000 00000000  ................
 400510 00000000 00000000 29000000 12000000  ........).......
 400520 00000000 00000000 00000000 00000000  ................
 400530 3f000000 11001a00 40416000 00000000  ?.......@A`.....
 400540 08000000 00000000                    ........        
Contents of section .dynstr:
 400548 006c6962 632e736f 2e360073 74726370  .libc.so.6.strcp
 400558 79006578 69740072 65676578 65630070  y.exit.regexec.p
 400568 69706500 70757473 00666f72 6b005f5f  ipe.puts.fork.__
 400578 73746163 6b5f6368 6b5f6661 696c0073  stack_chk_fail.s
 400588 7464696e 00707269 6e746600 73747274  tdin.printf.strt
 400598 6f6b0066 67657463 0063616c 6c6f6300  ok.fgetc.calloc.
 4005a8 7374726c 656e0067 65746368 61720063  strlen.getchar.c
 4005b8 68646972 00647570 32006d61 6c6c6f63  hdir.dup2.malloc
 4005c8 00726567 636f6d70 00657865 63767000  .regcomp.execvp.
 4005d8 77616974 70696400 636c6f73 65006f70  waitpid.close.op
 4005e8 656e0073 7472636d 70005f5f 6c696263  en.strcmp.__libc
 4005f8 5f737461 72745f6d 61696e00 66726565  _start_main.free
 400608 005f5f67 6d6f6e5f 73746172 745f5f00  .__gmon_start__.
 400618 474c4942 435f322e 332e3400 474c4942  GLIBC_2.3.4.GLIB
 400628 435f322e 3400474c 4942435f 322e322e  C_2.4.GLIBC_2.2.
 400638 3500                                 5.              
Contents of section .gnu.version:
 40063a 00000200 02000200 02000200 03000200  ................
 40064a 02000200 02000200 02000200 02000200  ................
 40065a 02000000 02000400 02000200 02000200  ................
 40066a 02000200 0200                        ......          
Contents of section .gnu.version_r:
 400670 01000300 01000000 10000000 00000000  ................
 400680 74196909 00000400 d0000000 10000000  t.i.............
 400690 1469690d 00000300 dc000000 10000000  .ii.............
 4006a0 751a6909 00000200 e6000000 00000000  u.i.............
Contents of section .rela.dyn:
 4006b0 f83f6000 00000000 06000000 11000000  .?`.............
 4006c0 00000000 00000000 40416000 00000000  ........@A`.....
 4006d0 05000000 1a000000 00000000 00000000  ................
Contents of section .rela.plt:
 4006e0 18406000 00000000 07000000 01000000  .@`.............
 4006f0 00000000 00000000 20406000 00000000  ........ @`.....
 400700 07000000 02000000 00000000 00000000  ................
 400710 28406000 00000000 07000000 03000000  (@`.............
 400720 00000000 00000000 30406000 00000000  ........0@`.....
 400730 07000000 04000000 00000000 00000000  ................
 400740 38406000 00000000 07000000 05000000  8@`.............
 400750 00000000 00000000 40406000 00000000  ........@@`.....
 400760 07000000 06000000 00000000 00000000  ................
 400770 48406000 00000000 07000000 07000000  H@`.............
 400780 00000000 00000000 50406000 00000000  ........P@`.....
 400790 07000000 08000000 00000000 00000000  ................
 4007a0 58406000 00000000 07000000 09000000  X@`.............
 4007b0 00000000 00000000 60406000 00000000  ........`@`.....
 4007c0 07000000 0a000000 00000000 00000000  ................
 4007d0 68406000 00000000 07000000 0b000000  h@`.............
 4007e0 00000000 00000000 70406000 00000000  ........p@`.....
 4007f0 07000000 0c000000 00000000 00000000  ................
 400800 78406000 00000000 07000000 0d000000  x@`.............
 400810 00000000 00000000 80406000 00000000  .........@`.....
 400820 07000000 0e000000 00000000 00000000  ................
 400830 88406000 00000000 07000000 0f000000  .@`.............
 400840 00000000 00000000 90406000 00000000  .........@`.....
 400850 07000000 10000000 00000000 00000000  ................
 400860 98406000 00000000 07000000 12000000  .@`.............
 400870 00000000 00000000 a0406000 00000000  .........@`.....
 400880 07000000 13000000 00000000 00000000  ................
 400890 a8406000 00000000 07000000 14000000  .@`.............
 4008a0 00000000 00000000 b0406000 00000000  .........@`.....
 4008b0 07000000 15000000 00000000 00000000  ................
 4008c0 b8406000 00000000 07000000 16000000  .@`.............
 4008d0 00000000 00000000 c0406000 00000000  .........@`.....
 4008e0 07000000 17000000 00000000 00000000  ................
 4008f0 c8406000 00000000 07000000 18000000  .@`.............
 400900 00000000 00000000 d0406000 00000000  .........@`.....
 400910 07000000 19000000 00000000 00000000  ................
Contents of section .init:
 400920 4883ec08 488b05cd 36200048 85c07405  H...H...6 .H..t.
 400930 e89b0100 004883c4 08c3               .....H....      
Contents of section .plt:
 400940 ff35c236 2000ff25 c4362000 0f1f4000  .5.6 ..%.6 ...@.
 400950 ff25c236 20006800 000000e9 e0ffffff  .%.6 .h.........
 400960 ff25ba36 20006801 000000e9 d0ffffff  .%.6 .h.........
 400970 ff25b236 20006802 000000e9 c0ffffff  .%.6 .h.........
 400980 ff25aa36 20006803 000000e9 b0ffffff  .%.6 .h.........
 400990 ff25a236 20006804 000000e9 a0ffffff  .%.6 .h.........
 4009a0 ff259a36 20006805 000000e9 90ffffff  .%.6 .h.........
 4009b0 ff259236 20006806 000000e9 80ffffff  .%.6 .h.........
 4009c0 ff258a36 20006807 000000e9 70ffffff  .%.6 .h.....p...
 4009d0 ff258236 20006808 000000e9 60ffffff  .%.6 .h.....`...
 4009e0 ff257a36 20006809 000000e9 50ffffff  .%z6 .h.....P...
 4009f0 ff257236 2000680a 000000e9 40ffffff  .%r6 .h.....@...
 400a00 ff256a36 2000680b 000000e9 30ffffff  .%j6 .h.....0...
 400a10 ff256236 2000680c 000000e9 20ffffff  .%b6 .h..... ...
 400a20 ff255a36 2000680d 000000e9 10ffffff  .%Z6 .h.........
 400a30 ff255236 2000680e 000000e9 00ffffff  .%R6 .h.........
 400a40 ff254a36 2000680f 000000e9 f0feffff  .%J6 .h.........
 400a50 ff254236 20006810 000000e9 e0feffff  .%B6 .h.........
 400a60 ff253a36 20006811 000000e9 d0feffff  .%:6 .h.........
 400a70 ff253236 20006812 000000e9 c0feffff  .%26 .h.........
 400a80 ff252a36 20006813 000000e9 b0feffff  .%*6 .h.........
 400a90 ff252236 20006814 000000e9 a0feffff  .%"6 .h.........
 400aa0 ff251a36 20006815 000000e9 90feffff  .%.6 .h.........
 400ab0 ff251236 20006816 000000e9 80feffff  .%.6 .h.........
 400ac0 ff250a36 20006817 000000e9 70feffff  .%.6 .h.....p...
Contents of section .plt.got:
 400ad0 ff252235 20006690                    .%"5 .f.        
Contents of section .text:
 400ae0 31ed4989 d15e4889 e24883e4 f0505449  1.I..^H..H...PTI
 400af0 c7c0602c 400048c7 c1f02b40 0048c7c7  ..`,@.H...+@.H..
 400b00 d60b4000 e807ffff fff4660f 1f440000  ..@.......f..D..
 400b10 b82f4160 0055482d 28416000 4883f80e  ./A`.UH-(A`.H...
 400b20 4889e576 1bb80000 00004885 c074115d  H..v......H..t.]
 400b30 bf284160 00ffe066 0f1f8400 00000000  .(A`...f........
 400b40 5dc30f1f 4000662e 0f1f8400 00000000  ]...@.f.........
 400b50 be284160 00554881 ee284160 0048c1fe  .(A`.UH..(A`.H..
 400b60 034889e5 4889f048 c1e83f48 01c648d1  .H..H..H..?H..H.
 400b70 fe7415b8 00000000 4885c074 0b5dbf28  .t......H..t.].(
 400b80 416000ff e00f1f00 5dc3660f 1f440000  A`......].f..D..
 400b90 803db135 20000075 11554889 e5e86eff  .=.5 ..u.UH...n.
 400ba0 ffff5dc6 059e3520 0001f3c3 0f1f4000  ..]...5 ......@.
 400bb0 bf203e60 0048833f 007505eb 930f1f00  . >`.H.?.u......
 400bc0 b8000000 004885c0 74f15548 89e5ffd0  .....H..t.UH....
 400bd0 5de97aff ffff5548 89e5bf88 2c4000e8  ].z...UH....,@..
 400be0 8cfdffff b8000000 00e80700 0000b800  ................
 400bf0 0000005d c3554889 e54881ec 90000000  ...].UH..H......
 400c00 64488b04 25280000 00488945 f831c0c7  dH..%(...H.E.1..
 400c10 857cffff ff000000 0048c745 80000000  .|.......H.E....
 400c20 0048c745 88000000 0048c745 90000000  .H.E.....H.E....
 400c30 00c745a0 00000000 c745a400 00000048  ..E......E.....H
 400c40 c745a84f 4b000048 8d55b0b8 00000000  .E.OK..H.U......
 400c50 b9070000 004889d7 f348abc7 45e80000  .....H...H..E...
 400c60 0000c745 ec000000 00488d55 a0488d4d  ...E.....H.U.H.M
 400c70 808b857c ffffff48 89ce89c7 e83c0000  ...|...H.....<..
 400c80 0089857c ffffff83 bd7cffff ff0775d9  ...|.....|....u.
 400c90 488d55a0 488d4580 4889c6bf 07000000  H.U.H.E.H.......
 400ca0 e8180000 00909048 8b45f864 48330425  .......H.E.dH3.%
 400cb0 28000000 7405e8e5 fcffffc9 c3554889  (...t........UH.
 400cc0 e5534883 ec68897d ac488975 a0488955  .SH..h.}.H.u.H.U
 400cd0 9864488b 04252800 00004889 45e831c0  .dH..%(...H.E.1.
 400ce0 c745c007 00000048 8b45988b 0085c074  .E.....H.E.....t
 400cf0 07c745ac 05000000 837dac07 0f873807  ..E......}....8.
 400d00 00008b45 ac488b04 c5c02c40 00ffe0bf  ...E.H....,@....
 400d10 51000000 e837fdff ff4889c2 488b45a0  Q....7...H..H.E.
 400d20 48891048 8b45a048 8b004883 c050c600  H..H.E.H..H..P..
 400d30 00c745c0 01000000 e9fd0600 00488b45  ..E..........H.E
 400d40 984889c7 e8e30b00 00488b45 988b404c  .H.......H.E..@L
 400d50 85c07409 c745c007 000000eb 07c745c0  ..t..E........E.
 400d60 01000000 488b4598 c7000000 0000488b  ....H.E.......H.
 400d70 4598c740 04000000 00488b45 9848c740  E..@.....H.E.H.@
 400d80 084f4b00 004883c0 10b93800 0000be00  .OK..H....8.....
 400d90 00000048 893089ca 4801c248 83c20848  ...H.0..H..H...H
 400da0 8972f048 8d500848 83e2f848 29d001c1  .r.H.P.H...H)...
 400db0 83e1f889 c8c1e803 89c14889 d74889f0  ..........H..H..
 400dc0 f348ab48 8b4598c7 40480000 0000488b  .H.H.E..@H....H.
 400dd0 4598c740 4c000000 00e95c06 0000beb2  E..@L.....\.....
 400de0 2c4000bf b82c4000 b8000000 00e8cefb  ,@...,@.........
 400df0 ffff488b 45a0488b 00488b55 984889d6  ..H.E.H..H.U.H..
 400e00 4889c7e8 50060000 c745c002 000000e9  H...P....E......
 400e10 26060000 c745bc00 00000048 8b45a048  &....E.....H.E.H
 400e20 8b00488b 5598488d 4dbc4889 ce4889c7  ..H.U.H.M.H..H..
 400e30 e84a0700 008b45bc 85c0750c c745c003  .J....E...u..E..
 400e40 000000e9 f2050000 8b45bc83 f801750c  .........E....u.
 400e50 c745c001 000000e9 de050000 c745c005  .E...........E..
 400e60 000000e9 d2050000 488b45a0 488b00be  ........H.E.H...
 400e70 782c4000 4889c7e8 b4fbffff 85c0750c  x,@.H.........u.
 400e80 c745c007 000000e9 ae050000 c745c400  .E...........E..
 400e90 000000c7 45c80000 0000be30 000000bf  ....E......0....
 400ea0 0b000000 e877fbff ff4889c2 488b45a0  .....w...H..H.E.
 400eb0 48895008 c745c800 000000e9 c1000000  H.P..E..........
 400ec0 488b45a0 488b4808 8b45c848 63d04889  H.E.H.H..E.Hc.H.
 400ed0 d04801c0 4801d048 c1e00448 8d1c01be  .H..H..H...H....
 400ee0 01000000 bf510000 00e832fb ffff4889  .....Q....2...H.
 400ef0 4328488b 45a0488b 48088b45 c84863d0  C(H.E.H.H..E.Hc.
 400f00 4889d048 01c04801 d048c1e0 04488d1c  H..H..H..H...H..
 400f10 01be0100 0000bf51 000000e8 00fbffff  .......Q........
 400f20 48894320 488b45a0 488b4808 8b45c848  H.C H.E.H.H..E.H
 400f30 63d04889 d04801c0 4801d048 c1e00448  c.H..H..H..H...H
 400f40 8d1c01bf 51000000 e803fbff ff488903  ....Q........H..
 400f50 488b45a0 488b4808 8b45c848 63d04889  H.E.H.H..E.Hc.H.
 400f60 d04801c0 4801d048 c1e00448 8d1c01bf  .H..H..H...H....
 400f70 41000000 e8d7faff ff488943 088345c8  A........H.C..E.
 400f80 01837dc8 090f8e35 ffffff48 8b45a048  ..}....5...H.E.H
 400f90 8b00bebb 2c400048 89c7e8f1 faffff48  ....,@.H.......H
 400fa0 8945e0c7 45c40000 0000eb47 488b45a0  .E..E......GH.E.
 400fb0 488b4808 8b45c448 63d04889 d04801c0  H.H..E.Hc.H..H..
 400fc0 4801d048 c1e00448 01c8488b 00488b55  H..H...H..H..H.U
 400fd0 e04889d6 4889c7e8 84f9ffff 8345c401  .H..H........E..
 400fe0 bebb2c40 00bf0000 0000e8a1 faffff48  ..,@...........H
 400ff0 8945e048 837de000 75b2488b 45a08b55  .E.H.}..u.H.E..U
 401000 c4895010 488b5598 488b45a0 4889d648  ..P.H.U.H.E.H..H
 401010 89c7e865 09000048 8b45a048 89c7e89f  ...e...H.E.H....
 401020 0c000048 8b559848 8b45a048 89d64889  ...H.U.H.E.H..H.
 401030 c7e8ca16 0000c745 c0040000 00e9f803  .......E........
 401040 0000c745 cc000000 00e9bb00 0000c745  ...E...........E
 401050 d0000000 00eb3e48 8b45a048 8b48088b  ......>H.E.H.H..
 401060 45cc4863 d04889d0 4801c048 01d048c1  E.Hc.H..H..H..H.
 401070 e0044801 c8488b40 088b55d0 4863d248  ..H..H.@..U.Hc.H
 401080 c1e20348 01d0488b 004889c7 e8bff8ff  ...H..H..H......
 401090 ff8345d0 01488b45 a0488b48 088b45cc  ..E..H.E.H.H..E.
 4010a0 4863d048 89d04801 c04801d0 48c1e004  Hc.H..H..H..H...
 4010b0 4801c88b 40103b45 d07f9c48 8b45a048  H...@.;E...H.E.H
 4010c0 8b48088b 45cc4863 d04889d0 4801c048  .H..E.Hc.H..H..H
 4010d0 01d048c1 e0044801 c8c74014 00000000  ..H...H...@.....
 4010e0 488b45a0 488b4808 8b45cc48 63d04889  H.E.H.H..E.Hc.H.
 4010f0 d04801c0 4801d048 c1e00448 01c8c740  .H..H..H...H...@
 401100 18000000 008345cc 01488b45 a08b4010  ......E..H.E..@.
 401110 3b45cc0f 8f35ffff ffc745cc 00000000  ;E...5....E.....
 401120 c745cc00 000000e9 ab000000 488b45a0  .E..........H.E.
 401130 488b4808 8b45cc48 63d04889 d04801c0  H.H..E.Hc.H..H..
 401140 4801d048 c1e00448 01c8488b 40284889  H..H...H..H.@(H.
 401150 c7e8faf7 ffff488b 45a0488b 48088b45  ......H.E.H.H..E
 401160 cc4863d0 4889d048 01c04801 d048c1e0  .Hc.H..H..H..H..
 401170 044801c8 488b4020 4889c7e8 d0f7ffff  .H..H.@ H.......
 401180 488b45a0 488b4808 8b45cc48 63d04889  H.E.H.H..E.Hc.H.
 401190 d04801c0 4801d048 c1e00448 01c8488b  .H..H..H...H..H.
 4011a0 004889c7 e8a7f7ff ff488b45 a0488b48  .H.......H.E.H.H
 4011b0 088b45cc 4863d048 89d04801 c04801d0  ..E.Hc.H..H..H..
 4011c0 48c1e004 4801c848 8b400848 89c7e87d  H...H..H.@.H...}
 4011d0 f7ffff83 45cc0183 7dcc0a0f 8e4bffff  ....E...}....K..
 4011e0 ff488b45 a0c74010 00000000 488b45a0  .H.E..@.....H.E.
 4011f0 488b4008 4889c7e8 54f7ffff c745c001  H.@.H...T....E..
 401200 000000e9 32020000 c745d400 000000eb  ....2....E......
 401210 518b45d4 4898488b 14c5f040 6000488b  Q.E.H.H....@`.H.
 401220 45a0488b 4008488b 4008488b 004889d6  E.H.@.H.@.H..H..
 401230 4889c7e8 f8f7ffff 8945d883 7dd80075  H........E..}..u
 401240 1d8b45d4 4898488b 04c51041 6000488b  ..E.H.H....A`.H.
 401250 4d98488b 55a04889 ce4889d7 ffd08345  M.H.U.H..H.....E
 401260 d401837d d4027ea9 488b45a0 8b401083  ...}..~.H.E..@..
 401270 f8017e23 488b45a0 8b501048 8b759848  ..~#H.E..P.H.u.H
 401280 8b45a089 d1ba0000 00004889 c7e8d00c  .E........H.....
 401290 0000e98a 010000e8 24f8ffff 8945dc83  ........$....E..
 4012a0 7ddc0074 1b488d4d bc8b45dc ba000000  }..t.H.M..E.....
 4012b0 004889ce 89c7e8b5 f7ffffe9 61010000  .H..........a...
 4012c0 837ddc00 0f898800 0000488b 4598c700  .}........H.E...
 4012d0 01000000 488b4598 c74004c9 00000048  ....H.E..@.....H
 4012e0 8b459848 bb466f72 6b206661 69488958  .E.H.Fork faiH.X
 4012f0 0848c740 106c6564 2e4883c0 18b93000  .H.@.led.H....0.
 401300 0000be00 00000048 893089ca 4801c248  .......H.0..H..H
 401310 83c20848 8972f048 8d500848 83e2f848  ...H.r.H.P.H...H
 401320 29d001c1 83e1f889 c8c1e803 89c14889  ).............H.
 401330 d74889f0 f348ab48 8b4598c7 40480000  .H...H.H.E..@H..
 401340 0000488b 4598c740 4c000000 00e9cf00  ..H.E..@L.......
 401350 0000488b 4d98488b 45a0ba00 00000048  ..H.M.H.E......H
 401360 89ce4889 c7e8d509 0000488b 45a0488b  ..H.......H.E.H.
 401370 4008488b 5008488b 45a0488b 4008488b  @.H.P.H.E.H.@.H.
 401380 4008488b 004889d6 4889c7e8 10f7ffff  @.H..H..H.......
 401390 488b4598 c7000100 0000488b 4598c740  H.E.......H.E..@
 4013a0 04ca0000 00488b45 9848bb54 61726765  .....H.E.H.Targe
 4013b0 74206648 89580848 bb756e63 74696f6e  t fH.X.H.unction
 4013c0 20488958 1048bb66 61696c65 64207448   H.X.H.failed tH
 4013d0 89581848 bb6f2065 78656375 74488958  .X.H.o executH.X
 4013e0 2048c740 28652e00 0048c740 30000000   H.@(e...H.@0...
 4013f0 0048c740 38000000 0048c740 40000000  .H.@8....H.@@...
 401400 00488b45 98c74048 00000000 488b4598  .H.E..@H....H.E.
 401410 c7404c00 000000bf 01000000 e88ff6ff  .@L.............
 401420 ffc745c0 06000000 eb10488b 45a0488b  ..E.......H.E.H.
 401430 004889c7 e817f5ff ff908b45 c0488b5d  .H.........E.H.]
 401440 e8644833 1c252800 00007405 e84ff5ff  .dH3.%(...t..O..
 401450 ff4883c4 685b5dc3 554889e5 4883ec30  .H..h[].UH..H..0
 401460 48897dd8 488975d0 488b45d0 8b0085c0  H.}.H.u.H.E.....
 401470 0f850301 0000488b 45d84889 45f8c745  ......H.E.H.E..E
 401480 e8000000 00c745ec 00000000 c745f000  ......E......E..
 401490 00000048 8b05a62c 20004889 c7e82ef5  ...H..., .H.....
 4014a0 ffff8845 e7807de7 0a741b48 8b45f80f  ...E..}..t.H.E..
 4014b0 b655e788 10488345 f8018345 e801837d  .U...H.E...E...}
 4014c0 e8507ecf eb0c488b 45f8c600 00e9ab00  .P~...H.E.......
 4014d0 0000c745 ec010000 00488b45 d0c70001  ...E.....H.E....
 4014e0 00000048 8b45d0c7 40046500 0000488b  ...H.E..@.e...H.
 4014f0 45d048b9 4c696e65 20636861 48894808  E.H.Line chaH.H.
 401500 48be7261 63746572 206c4889 701048ba  H.racter lH.p.H.
 401510 696d6974 20657863 48895018 48b96565  imit excH.P.H.ee
 401520 6465642e 00004889 482048c7 40280000  ded...H.H H.@(..
 401530 000048c7 40300000 000048c7 40380000  ..H.@0....H.@8..
 401540 000048c7 40400000 0000488b 45d0c740  ..H.@@....H.E..@
 401550 48000000 00488b45 d0c7404c 00000000  H....H.E..@L....
 401560 eb0190e8 d8f4ffff 8945f483 7df4ff74  .........E..}..t
 401570 0b837df4 0a75ebeb 0390eb01 90c9c355  ..}..u.........U
 401580 4889e548 83ec4048 897dd848 8975d048  H..H..@H.}.H.u.H
 401590 8955c848 8b45c88b 0085c00f 85880300  .U.H.E..........
 4015a0 00488b45 d8488945 f8c745f0 00000000  .H.E.H.E..E.....
 4015b0 c745f400 000000c7 45ecffff ffffba09  .E......E.......
 4015c0 000000be 002d4000 bf604160 00e82ef4  .....-@..`A`....
 4015d0 ffff8945 f4837df4 000f8487 00000048  ...E..}........H
 4015e0 8b45c8c7 00010000 00488b45 c8c74004  .E.......H.E..@.
 4015f0 2d010000 488b45c8 48bf4120 72756e74  -...H.E.H.A runt
 401600 696d4889 780848bf 65206572 726f7220  imH.x.H.e error 
 401610 48897810 48be6f63 63757265 64204889  H.x.H.occured H.
 401620 701848bf 696e2072 65676578 48897820  p.H.in regexH.x 
 401630 48c74028 2e680000 48c74030 00000000  H.@(.h..H.@0....
 401640 48c74038 00000000 48c74040 00000000  H.@8....H.@@....
 401650 488b45c8 c7404800 00000048 8b45c8c7  H.E..@H....H.E..
 401660 404c0100 0000488b 45d841b8 00000000  @L....H.E.A.....
 401670 b9000000 00ba0000 00004889 c6bf6041  ..........H...`A
 401680 6000e8d9 f3ffff89 45f0488b 45d80fb6  `.......E.H.E...
 401690 0084c075 0f488b45 d0c70001 000000e9  ...u.H.E........
 4016a0 86020000 837df000 0f848801 0000488b  .....}........H.
 4016b0 45c8c700 01000000 488b45c8 c7400466  E.......H.E..@.f
 4016c0 00000048 8b45c848 be53796e 74617820  ...H.E.H.Syntax 
 4016d0 45488970 0848bf72 726f722e 00000048  EH.p.H.rror....H
 4016e0 89781048 83c018b9 30000000 be000000  .x.H....0.......
 4016f0 00488930 89ca4801 c24883c2 08488972  .H.0..H..H...H.r
 401700 f0488d50 084883e2 f84829d0 01c183e1  .H.P.H...H).....
 401710 f889c8c1 e80389c1 4889d748 89f0f348  ........H..H...H
 401720 ab488b45 c8c74048 00000000 488b45c8  .H.E..@H....H.E.
 401730 c7404c00 00000048 8b45d0c7 00020000  .@L....H.E......
 401740 00e9e401 0000488b 45f80fb6 003c3e75  ......H.E....<>u
 401750 11c745ec 3e000000 488345f8 01e9d400  ..E.>...H.E.....
 401760 0000488b 45f80fb6 003c3c75 11c745ec  ..H.E....<<u..E.
 401770 3c000000 488345f8 01e9b800 00004883  <...H.E.......H.
 401780 45f80148 8b45f80f b6000fbe c03b45ec  E..H.E.......;E.
 401790 0f859600 0000488b 45c8c700 01000000  ......H.E.......
 4017a0 488b45c8 c7400470 00000048 8b45c848  H.E..@.p...H.E.H
 4017b0 b953796e 74617820 45488948 0848be72  .Syntax EH.H.H.r
 4017c0 726f7220 2d204448 89701048 bf6f7562  ror - DH.p.H.oub
 4017d0 6c652052 65488978 1848b964 69726563  le ReH.x.H.direc
 4017e0 742e0048 89482048 c7402800 00000048  t..H.H H.@(....H
 4017f0 c7403000 00000048 c7403800 00000048  .@0....H.@8....H
 401800 c7404000 00000048 8b45c8c7 40480000  .@@....H.E..@H..
 401810 0000488b 45c8c740 4c000000 00488b45  ..H.E..@L....H.E
 401820 d0c70002 000000e9 fe000000 488b45d0  ............H.E.
 401830 c7000000 0000488b 45f80fb6 0084c00f  ......H.E.......
 401840 8501ffff ff488b45 d8488945 f8e9c600  .....H.E.H.E....
 401850 0000488b 45f80fb6 003c200f 84a80000  ..H.E....< .....
 401860 00488b45 f84883c0 010fb600 3c7c0f85  .H.E.H......<|..
 401870 95000000 488b45c8 c7000100 0000488b  ....H.E.......H.
 401880 45c8c740 04660000 00488b45 c848be53  E..@.f...H.E.H.S
 401890 796e7461 78204548 89700848 bf72726f  yntax EH.p.H.rro
 4018a0 722e0000 00488978 104883c0 18b93000  r....H.x.H....0.
 4018b0 0000be00 00000048 893089ca 4801c248  .......H.0..H..H
 4018c0 83c20848 8972f048 8d500848 83e2f848  ...H.r.H.P.H...H
 4018d0 29d001c1 83e1f889 c8c1e803 89c14889  ).............H.
 4018e0 d74889f0 f348ab48 8b45c8c7 40480000  .H...H.H.E..@H..
 4018f0 0000488b 45c8c740 4c000000 00488b45  ..H.E..@L....H.E
 401900 d0c70002 000000eb 21488b45 d0c70000  ........!H.E....
 401910 00000048 8345f801 488b45f8 0fb60084  ...H.E..H.E.....
 401920 c00f852b ffffffeb 0190c9c3 554889e5  ...+........UH..
 401930 4883ec10 48897df8 488b45f8 8b0083f8  H...H.}.H.E.....
 401940 01752048 8b45f848 8d500848 8b45f88b  .u H.E.H.P.H.E..
 401950 400489c6 bf5d2d40 00b80000 0000e85d  @....]-@.......]
 401960 f0ffff48 8b45f88b 404883f8 01750abf  ...H.E..@H...u..
 401970 00000000 e837f1ff ff90c9c3 554889e5  .....7......UH..
 401980 4883ec30 48897dd8 488975d0 64488b04  H..0H.}.H.u.dH..
 401990 25280000 00488945 f831c0c7 45e80000  %(...H.E.1..E...
 4019a0 0000e998 000000c7 45ec0000 0000488b  ........E.....H.
 4019b0 45d8488b 48088b45 e84863d0 4889d048  E.H.H..E.Hc.H..H
 4019c0 01c04801 d048c1e0 044801c8 c7401000  ..H..H...H...@..
 4019d0 00000048 8b45d848 8b48088b 45e84863  ...H.E.H.H..E.Hc
 4019e0 d04889d0 4801c048 01d048c1 e0044801  .H..H..H..H...H.
 4019f0 c8488b00 488945f0 488b45d8 488b4808  .H..H.E.H.E.H.H.
 401a00 8b45e848 63d04889 d04801c0 4801d048  .E.Hc.H..H..H..H
 401a10 c1e00448 8d3c0148 8b55d048 8d75f08b  ...H.<.H.U.H.u..
 401a20 45ec4889 d14889fa 89c7e837 00000089  E.H..H.....7....
 401a30 45ec837d ec087402 ebbe9083 45e80148  E..}..t.....E..H
 401a40 8b45d88b 40103b45 e80f8f58 ffffff90  .E..@.;E...X....
 401a50 488b45f8 64483304 25280000 007405e8  H.E.dH3.%(...t..
 401a60 3cefffff c9c35548 89e55348 83ec3889  <.....UH..SH..8.
 401a70 7ddc4889 75d04889 55c84889 4dc0c745  }.H.u.H.U.H.M..E
 401a80 e8080000 00837ddc 080f8729 0200008b  ......}....)....
 401a90 45dc488b 04c5702d 4000ffe0 bf410000  E.H...p-@....A..
 401aa0 00e8aaef ffff4889 c2488b45 c8488950  ......H..H.E.H.P
 401ab0 08488b45 c8488b00 be6b2d40 004889c7  .H.E.H...k-@.H..
 401ac0 e8cbefff ff4889c2 488b45d0 488910c7  .....H..H.E.H...
 401ad0 45e80600 0000e9dd 010000be 6b2d4000  E...........k-@.
 401ae0 bf000000 00e8a6ef ffff4889 c2488b45  ..........H..H.E
 401af0 d0488910 488b45d0 488b0048 85c0740e  .H..H.E.H..H..t.
 401b00 488b45d0 488b000f b60084c0 750cc745  H.E.H.......u..E
 401b10 e8070000 00e99e01 0000488b 45d0488b  ..........H.E.H.
 401b20 000fb600 3c3c750c c745e803 000000e9  ....<<u..E......
 401b30 84010000 488b45d0 488b000f b6003c3e  ....H.E.H.....<>
 401b40 750cc745 e8020000 00e96a01 0000c745  u..E......j....E
 401b50 e8060000 00e95e01 0000488b 45c8c740  ......^...H.E..@
 401b60 14010000 00c745e8 04000000 e9470100  ......E......G..
 401b70 00be6b2d 4000bf00 000000e8 10efffff  ..k-@...........
 401b80 4889c248 8b45d048 8910488b 45d0488b  H..H.E.H..H.E.H.
 401b90 10488b45 c8488b40 204889d6 4889c7e8  .H.E.H.@ H..H...
 401ba0 bcedffff c745e801 000000e9 08010000  .....E..........
 401bb0 488b45c8 c7401801 000000c7 45e80500  H.E..@......E...
 401bc0 0000e9f1 000000be 6b2d4000 bf000000  ........k-@.....
 401bd0 00e8baee ffff4889 c2488b45 d0488910  ......H..H.E.H..
 401be0 488b45d0 488b1048 8b45c848 8b402848  H.E.H..H.E.H.@(H
 401bf0 89d64889 c7e866ed ffffc745 e8010000  ..H...f....E....
 401c00 00e9b200 0000488b 45c88b40 108945ec  ......H.E..@..E.
 401c10 488b45c8 488b4008 8b55ec48 63d248c1  H.E.H.@..U.Hc.H.
 401c20 e203488d 1c10488b 45d0488b 004889c7  ..H...H.E.H..H..
 401c30 e84bedff ff4883c0 014889c7 e80feeff  .K...H...H......
 401c40 ff488903 488b45d0 488b1048 8b45c848  .H..H.E.H..H.E.H
 401c50 8b40088b 4dec4863 c948c1e1 034801c8  .@..M.Hc.H...H..
 401c60 488b0048 89d64889 c7e8f2ec ffff488b  H..H..H.......H.
 401c70 45c88b40 108d5001 488b45c8 895010c7  E..@..P.H.E..P..
 401c80 45e80100 0000eb30 488b45c8 488b5008  E......0H.E.H.P.
 401c90 488b45c8 8b401048 9848c1e0 034801d0  H.E..@.H.H...H..
 401ca0 48c70000 000000c7 45e80800 0000eb08  H.......E.......
 401cb0 c745e808 00000090 8b45e848 83c4385b  .E.......E.H..8[
 401cc0 5dc35548 89e54889 7de8c745 f8000000  ].UH..H.}..E....
 401cd0 00eb5dc7 45fc0000 0000eb04 8345fc01  ..].E........E..
 401ce0 488b45e8 488b4808 8b45f848 63d04889  H.E.H.H..E.Hc.H.
 401cf0 d04801c0 4801d048 c1e00448 01c88b40  .H..H..H...H...@
 401d00 103b45fc 7fd68b45 f84863d0 4889d048  .;E....E.Hc.H..H
 401d10 01c04801 d048c1e0 048b45f8 4863d048  ..H..H....E.Hc.H
 401d20 89d04801 c04801d0 48c1e004 8345f801  ..H..H..H....E..
 401d30 488b45e8 8b40103b 45f87f97 905dc355  H.E..@.;E....].U
 401d40 4889e548 83ec3048 897de848 8975e089  H..H..0H.}.H.u..
 401d50 55dc488b 45e8488b 48088b45 dc4863d0  U.H.E.H.H..E.Hc.
 401d60 4889d048 01c04801 d048c1e0 044801c8  H..H..H..H...H..
 401d70 8b401485 c00f84e0 00000048 8b45e848  .@.........H.E.H
 401d80 8b48088b 45dc4863 d04889d0 4801c048  .H..E.Hc.H..H..H
 401d90 01d048c1 e0044801 c8488b40 20bab001  ..H...H..H.@ ...
 401da0 0000be41 00000048 89c7b800 000000e8  ...A...H........
 401db0 ccecffff 8945f883 7df8000f 89810000  .....E..}.......
 401dc0 00488b45 e0c70001 00000048 8b45e0c7  .H.E.......H.E..
 401dd0 40049101 0000488b 45e048be 4572726f  @.....H.E.H.Erro
 401de0 72207265 48897008 48be6469 72656374  r reH.p.H.direct
 401df0 696e4889 701048bf 6720746f 2066696c  inH.p.H.g to fil
 401e00 48897818 48c74020 652e0000 48c74028  H.x.H.@ e...H.@(
 401e10 00000000 48c74030 00000000 48c74038  ....H.@0....H.@8
 401e20 00000000 48c74040 00000000 488b45e0  ....H.@@....H.E.
 401e30 c7404800 00000048 8b45e0c7 404c0000  .@H....H.E..@L..
 401e40 00008b45 f8be0100 000089c7 e85febff  ...E........._..
 401e50 ff8b45f8 89c7e885 ebffff48 8b45e848  ..E........H.E.H
 401e60 8b48088b 45dc4863 d04889d0 4801c048  .H..E.Hc.H..H..H
 401e70 01d048c1 e0044801 c88b4018 85c00f84  ..H...H...@.....
 401e80 db000000 488b45e8 488b4808 8b45dc48  ....H.E.H.H..E.H
 401e90 63d04889 d04801c0 4801d048 c1e00448  c.H..H..H..H...H
 401ea0 01c8488b 4028be00 00000048 89c7b800  ..H.@(.....H....
 401eb0 000000e8 c8ebffff 8945fc83 7dfc000f  .........E..}...
 401ec0 89810000 00488b45 e0c70001 00000048  .....H.E.......H
 401ed0 8b45e0c7 40049101 0000488b 45e048b9  .E..@.....H.E.H.
 401ee0 4572726f 72207265 48894808 48be6469  Error reH.H.H.di
 401ef0 72656374 696e4889 701048bf 6720746f  rectinH.p.H.g to
 401f00 2066696c 48897818 48c74020 652e0000   filH.x.H.@ e...
 401f10 48c74028 00000000 48c74030 00000000  H.@(....H.@0....
 401f20 48c74038 00000000 48c74040 00000000  H.@8....H.@@....
 401f30 488b45e0 c7404800 00000048 8b45e0c7  H.E..@H....H.E..
 401f40 404c0000 00008b45 fcbe0000 000089c7  @L.....E........
 401f50 e85beaff ff8b45fc 89c7e881 eaffff90  .[....E.........
 401f60 c9c35548 89e54157 41564155 41545348  ..UH..AWAVAUATSH
 401f70 83ec7848 89bd78ff ffff4889 b570ffff  ..xH..x...H..p..
 401f80 ff89956c ffffff89 8d68ffff ff64488b  ...l.....h...dH.
 401f90 04252800 00004889 45c831c0 83bd68ff  .%(...H.E.1...h.
 401fa0 ffff000f 84330700 004889e0 4889c348  .....3...H..H..H
 401fb0 8b8578ff ffff8b40 104863d0 4883ea01  ..x....@.Hc.H...
 401fc0 488955a8 4863d049 89d641bf 00000000  H.U.Hc.I..A.....
 401fd0 4863d049 89d441bd 00000000 489848c1  Hc.I..A.....H.H.
 401fe0 e002488d 5003b810 00000048 83e80148  ..H.P......H...H
 401ff0 01d0b910 000000ba 00000000 48f7f148  ............H..H
 402000 6bc01048 29c44889 e04883c0 0348c1e8  k..H).H..H...H..
 402010 0248c1e0 02488945 b0488b85 78ffffff  .H...H.E.H..x...
 402020 8b401083 e8014863 d04883ea 01488955  .@....Hc.H...H.U
 402030 b84863d0 4989d241 bb000000 004863d0  .Hc.I..A.....Hc.
 402040 4989d041 b9000000 00489848 c1e00348  I..A.....H.H...H
 402050 8d5003b8 10000000 4883e801 4801d0bf  .P......H...H...
 402060 10000000 ba000000 0048f7f7 486bc010  .........H..Hk..
 402070 4829c448 89e04883 c00348c1 e80248c1  H).H..H...H...H.
 402080 e0024889 45c0c745 88000000 00e9cf00  ..H.E..E........
 402090 00008b45 88489848 8d14c500 00000048  ...E.H.H.......H
 4020a0 8b45c048 01d04889 c7e842e9 ffff8945  .E.H..H...B....E
 4020b0 98837d98 000f84a2 00000048 8b8570ff  ..}........H..p.
 4020c0 ffffc700 01000000 488b8570 ffffffc7  ........H..p....
 4020d0 40045902 0000488b 8570ffff ff48be50  @.Y...H..p...H.P
 4020e0 6970696e 67206548 89700848 be72726f  iping eH.p.H.rro
 4020f0 722e0000 00488970 104883c0 18b93000  r....H.p.H....0.
 402100 0000be00 00000048 893089ca 4801c248  .......H.0..H..H
 402110 83c20848 8972f048 8d500848 83e2f848  ...H.r.H.P.H...H
 402120 29d001c1 83e1f889 c8c1e803 89c14889  ).............H.
 402130 d74889f0 f348ab48 8b8570ff ffffc740  .H...H.H..p....@
 402140 48000000 00488b85 70ffffff c7404c00  H....H..p....@L.
 402150 000000b8 00000000 e9770500 00834588  .........w....E.
 402160 01488b85 78ffffff 8b401083 e8013b45  .H..x....@....;E
 402170 880f8f1b ffffffc7 45840000 0000e9af  ........E.......
 402180 040000e8 38e9ffff 89c1488b 45b08b55  ....8.....H.E..U
 402190 844863d2 890c9048 8b45b08b 55844863  .Hc....H.E..U.Hc
 4021a0 d28b0490 85c00f85 82040000 837d8400  .............}..
 4021b0 0f859f01 0000488b 45c08b55 844863d2  ......H.E..U.Hc.
 4021c0 8b44d004 be010000 0089c7e8 e0e7ffff  .D..............
 4021d0 488b45c0 8b558448 63d28b04 d089c7e8  H.E..U.Hc.......
 4021e0 fce7ffff c7458c00 000000eb 388b458c  .....E......8.E.
 4021f0 3b458474 2b488b45 c08b558c 4863d28b  ;E.t+H.E..U.Hc..
 402200 04d089c7 e8d7e7ff ff488b45 c08b558c  .........H.E..U.
 402210 4863d28b 44d00489 c7e8c2e7 ffffeb01  Hc..D...........
 402220 9083458c 01488b85 78ffffff 8b401083  ..E..H..x....@..
 402230 e8013b45 8c7fb648 8b8578ff ffff488b  ..;E...H..x...H.
 402240 48088b45 844863d0 4889d048 01c04801  H..E.Hc.H..H..H.
 402250 d048c1e0 044801c8 8b401885 c00f8473  .H...H...@.....s
 402260 03000048 8b8578ff ffff488b 48088b45  ...H..x...H.H..E
 402270 844863d0 4889d048 01c04801 d048c1e0  .Hc.H..H..H..H..
 402280 044801c8 488b4028 be000000 004889c7  .H..H.@(.....H..
 402290 b8000000 00e8e6e7 ffff8945 9c837d9c  ...........E..}.
 4022a0 000f8990 00000048 8b8570ff ffffc700  .......H..p.....
 4022b0 01000000 488b8570 ffffffc7 40049101  ....H..p....@...
 4022c0 0000488b 8570ffff ff48be45 72726f72  ..H..p...H.Error
 4022d0 20726548 89700848 be646972 65637469   reH.p.H.directi
 4022e0 6e488970 1048b967 20746f20 66696c48  nH.p.H.g to filH
 4022f0 89481848 c7402065 2e000048 c7402800  .H.H.@ e...H.@(.
 402300 00000048 c7403000 00000048 c7403800  ...H.@0....H.@8.
 402310 00000048 c7404000 00000048 8b8570ff  ...H.@@....H..p.
 402320 ffffc740 48000000 00488b85 70ffffff  ...@H....H..p...
 402330 c7404c00 0000008b 459cbe00 00000089  .@L.....E.......
 402340 c7e86ae6 ffff8b45 9c89c7e8 90e6ffff  ..j....E........
 402350 e9810200 00488b85 78ffffff 8b401083  .....H..x....@..
 402360 e8013b45 840f85ad 0100008b 45848d50  ..;E........E..P
 402370 ff488b45 c04863d2 8b04d0be 00000000  .H.E.Hc.........
 402380 89c7e829 e6ffff8b 45848d50 ff488b45  ...)....E..P.H.E
 402390 c04863d2 8b44d004 89c7e841 e6ffffc7  .Hc..D.....A....
 4023a0 45900000 0000eb3b 8b458483 e8013b45  E......;.E....;E
 4023b0 90742b48 8b45c08b 55904863 d28b04d0  .t+H.E..U.Hc....
 4023c0 89c7e819 e6ffff48 8b45c08b 55904863  .......H.E..U.Hc
 4023d0 d28b44d0 0489c7e8 04e6ffff eb019083  ..D.............
 4023e0 45900148 8b8578ff ffff8b40 1083e801  E..H..x....@....
 4023f0 3b45907f b3488b85 78ffffff 488b4808  ;E...H..x...H.H.
 402400 8b458448 63d04889 d04801c0 4801d048  .E.Hc.H..H..H..H
 402410 c1e00448 01c88b40 1485c00f 84b50100  ...H...@........
 402420 00488b85 78ffffff 488b4808 8b458448  .H..x...H.H..E.H
 402430 63d04889 d04801c0 4801d048 c1e00448  c.H..H..H..H...H
 402440 01c8488b 4020bab0 010000be 41000000  ..H.@ ......A...
 402450 4889c7b8 00000000 e823e6ff ff8945a0  H........#....E.
 402460 837da000 0f899000 0000488b 8570ffff  .}........H..p..
 402470 ffc70001 00000048 8b8570ff ffffc740  .......H..p....@
 402480 04910100 00488b85 70ffffff 48be4572  .....H..p...H.Er
 402490 726f7220 72654889 700848b9 64697265  ror reH.p.H.dire
 4024a0 6374696e 48894810 48be6720 746f2066  ctinH.H.H.g to f
 4024b0 696c4889 701848c7 4020652e 000048c7  ilH.p.H.@ e...H.
 4024c0 40280000 000048c7 40300000 000048c7  @(....H.@0....H.
 4024d0 40380000 000048c7 40400000 0000488b  @8....H.@@....H.
 4024e0 8570ffff ffc74048 00000000 488b8570  .p....@H....H..p
 4024f0 ffffffc7 404c0000 00008b45 a0be0100  ....@L.....E....
 402500 000089c7 e8a7e4ff ff8b45a0 89c7e8cd  ..........E.....
 402510 e4ffffe9 be000000 488b45c0 8b558448  ........H.E..U.H
 402520 63d28b44 d004be01 00000089 c7e87ee4  c..D..........~.
 402530 ffff8b45 848d50ff 488b45c0 4863d28b  ...E..P.H.E.Hc..
 402540 04d0be00 00000089 c7e862e4 ffffc745  ..........b....E
 402550 94000000 00eb6d8b 458483e8 013b4594  ......m.E....;E.
 402560 7517488b 45c08b55 944863d2 8b44d004  u.H.E..U.Hc..D..
 402570 89c7e869 e4ffffeb 478b4594 3b458475  ...i....G.E.;E.u
 402580 16488b45 c08b5594 4863d28b 04d089c7  .H.E..U.Hc......
 402590 e84be4ff ffeb2948 8b45c08b 55944863  .K....)H.E..U.Hc
 4025a0 d28b04d0 89c7e835 e4ffff48 8b45c08b  .......5...H.E..
 4025b0 55944863 d28b44d0 0489c7e8 20e4ffff  U.Hc..D..... ...
 4025c0 83459401 488b8578 ffffff8b 401083e8  .E..H..x....@...
 4025d0 013b4594 7f81488b 8578ffff ff488b48  .;E...H..x...H.H
 4025e0 088b4584 4863d048 89d04801 c04801d0  ..E.Hc.H..H..H..
 4025f0 48c1e004 4801c848 8b480848 8b8578ff  H...H..H.H.H..x.
 402600 ffff488b 70088b45 844863d0 4889d048  ..H.p..E.Hc.H..H
 402610 01c04801 d048c1e0 044801f0 488b4008  ..H..H...H..H.@.
 402620 488b0048 89ce4889 c7e872e4 ffff8345  H..H..H...r....E
 402630 8401488b 8578ffff ff8b4010 3b45840f  ..H..x....@.;E..
 402640 8f3efbff ffc74588 00000000 eb33488b  .>....E......3H.
 402650 45c08b55 884863d2 8b04d089 c7e87ee3  E..U.Hc.......~.
 402660 ffff8945 a4488b45 c08b5588 4863d28b  ...E.H.E..U.Hc..
 402670 44d00489 c7e866e3 ffff8945 a4834588  D.....f....E..E.
 402680 01488b85 78ffffff 8b401083 e8013b45  .H..x....@....;E
 402690 887fbbc7 45840000 0000eb24 488b45b0  ....E......$H.E.
 4026a0 8b558448 63d28b04 90488d4d 80ba0000  .U.Hc....H.M....
 4026b0 00004889 ce89c7e8 b4e3ffff 83458401  ..H..........E..
 4026c0 488b8578 ffffff8b 40103b45 847fcdb8  H..x....@.;E....
 4026d0 01000000 4889dc83 f801eb01 90488b45  ....H........H.E
 4026e0 c8644833 04252800 00007405 e8afe2ff  .dH3.%(...t.....
 4026f0 ff488d65 d85b415c 415d415e 415f5dc3  .H.e.[A\A]A^A_].
 402700 554889e5 48897de8 488975e0 488b45e8  UH..H.}.H.u.H.E.
 402710 8b401083 f8010f84 a0020000 c745fc00  .@...........E..
 402720 000000e9 84020000 837dfc00 0f85c100  .........}......
 402730 0000488b 45e8488b 48088b45 fc4863d0  ..H.E.H.H..E.Hc.
 402740 4889d048 01c04801 d048c1e0 044801c8  H..H..H..H...H..
 402750 8b401485 c00f844d 02000048 8b45e0c7  .@.....M...H.E..
 402760 00010000 00488b45 e0c74004 7a000000  .....H.E..@.z...
 402770 488b45e0 48be5379 6e746178 20454889  H.E.H.Syntax EH.
 402780 700848bf 72726f72 202d2049 48897810  p.H.rror - IH.x.
 402790 48be6c6c 6567616c 20504889 701848bf  H.llegal PH.p.H.
 4027a0 6970652f 52656469 48897820 48be7265  ipe/RediH.x H.re
 4027b0 63742043 6f6d4889 702848bf 62696e61  ct ComH.p(H.bina
 4027c0 74696f6e 48897830 48c74038 2e000000  tionH.x0H.@8....
 4027d0 48c74040 00000000 488b45e0 c7404800  H.@@....H.E..@H.
 4027e0 00000048 8b45e0c7 404c0000 0000e9b5  ...H.E..@L......
 4027f0 01000048 8b45e88b 401083e8 013b45fc  ...H.E..@....;E.
 402800 0f85c100 0000488b 45e8488b 48088b45  ......H.E.H.H..E
 402810 fc4863d0 4889d048 01c04801 d048c1e0  .Hc.H..H..H..H..
 402820 044801c8 8b401885 c00f8479 01000048  .H...@.....y...H
 402830 8b45e0c7 00010000 00488b45 e0c74004  .E.......H.E..@.
 402840 7a000000 488b45e0 48be5379 6e746178  z...H.E.H.Syntax
 402850 20454889 700848bf 72726f72 202d2049   EH.p.H.rror - I
 402860 48897810 48b96c6c 6567616c 20504889  H.x.H.llegal PH.
 402870 481848be 6970652f 52656469 48897020  H.H.ipe/RediH.p 
 402880 48bf7265 63742043 6f6d4889 782848b9  H.rect ComH.x(H.
 402890 62696e61 74696f6e 48894830 48c74038  binationH.H0H.@8
 4028a0 2e000000 48c74040 00000000 488b45e0  ....H.@@....H.E.
 4028b0 c7404800 00000048 8b45e0c7 404c0000  .@H....H.E..@L..
 4028c0 0000e9e1 00000048 8b45e848 8b48088b  .......H.E.H.H..
 4028d0 45fc4863 d04889d0 4801c048 01d048c1  E.Hc.H..H..H..H.
 4028e0 e0044801 c88b4018 85c07529 488b45e8  ..H...@...u)H.E.
 4028f0 488b4808 8b45fc48 63d04889 d04801c0  H.H..E.Hc.H..H..
 402900 4801d048 c1e00448 01c88b40 1485c00f  H..H...H...@....
 402910 84930000 00488b45 e0c70001 00000048  .....H.E.......H
 402920 8b45e0c7 40047a00 0000488b 45e048be  .E..@.z...H.E.H.
 402930 53796e74 61782045 48897008 48bf7272  Syntax EH.p.H.rr
 402940 6f72202d 20494889 781048ba 6c6c6567  or - IH.x.H.lleg
 402950 616c2050 48895018 48b96970 652f5265  al PH.P.H.ipe/Re
 402960 64694889 482048be 72656374 20436f6d  diH.H H.rect Com
 402970 48897028 48bf6269 6e617469 6f6e4889  H.p(H.binationH.
 402980 783048c7 40382e00 000048c7 40400000  x0H.@8....H.@@..
 402990 0000488b 45e0c740 48000000 00488b45  ..H.E..@H....H.E
 4029a0 e0c7404c 00000000 8345fc01 488b45e8  ..@L.....E..H.E.
 4029b0 8b40103b 45fc0f8f 6cfdffff 905dc355  .@.;E...l....].U
 4029c0 4889e548 83ec2048 897de848 8975e048  H..H.. H.}.H.u.H
 4029d0 8b45e848 8b400848 8b400848 83c00848  .E.H.@.H.@.H...H
 4029e0 8b004885 c00f8586 00000048 8b45e0c7  ..H........H.E..
 4029f0 00010000 00488b45 e0c74004 f6010000  .....H.E..@.....
 402a00 488b45e0 48ba436f 6d6d616e 64204889  H.E.H.Command H.
 402a10 500848b9 27636427 20726571 48894810  P.H.'cd' reqH.H.
 402a20 48be7569 65732070 61744889 701848c7  H.uies patH.p.H.
 402a30 4020682e 000048c7 40280000 000048c7  @ h...H.@(....H.
 402a40 40300000 000048c7 40380000 000048c7  @0....H.@8....H.
 402a50 40400000 0000488b 45e0c740 48000000  @@....H.E..@H...
 402a60 00488b45 e0c7404c 00000000 e9af0000  .H.E..@L........
 402a70 00488b45 e8488b40 08488b40 084883c0  .H.E.H.@.H.@.H..
 402a80 08488b00 4889c7e8 04dfffff 8945fc83  .H..H........E..
 402a90 7dfc000f 84870000 00488b45 e0c70001  }........H.E....
 402aa0 00000048 8b45e0c7 4004f501 0000488b  ...H.E..@.....H.
 402ab0 45e048ba 436f756c 64206e6f 48895008  E.H.Could noH.P.
 402ac0 48b97420 63642074 6f204889 481048bf  H.t cd to H.H.H.
 402ad0 73706563 69666965 48897818 48be6420  specifieH.x.H.d 
 402ae0 70617468 2e004889 702048c7 40280000  path..H.p H.@(..
 402af0 000048c7 40300000 000048c7 40380000  ..H.@0....H.@8..
 402b00 000048c7 40400000 0000488b 45e0c740  ..H.@@....H.E..@
 402b10 48000000 00488b45 e0c7404c 00000000  H....H.E..@L....
 402b20 90c9c355 4889e548 897df848 8975f048  ...UH..H.}.H.u.H
 402b30 8b45f0c7 00000000 00488b45 f0c74004  .E.......H.E..@.
 402b40 00000000 488b45f0 48bf476f 6f646279  ....H.E.H.Goodby
 402b50 65214889 780848c7 40100000 00004883  e!H.x.H.@.....H.
 402b60 c018b930 000000be 00000000 48893089  ...0........H.0.
 402b70 ca4801c2 4883c208 488972f0 488d5008  .H..H...H.r.H.P.
 402b80 4883e2f8 4829d001 c183e1f8 89c8c1e8  H...H)..........
 402b90 0389c148 89d74889 f0f348ab 488b45f0  ...H..H...H.H.E.
 402ba0 c7404801 00000048 8b45f0c7 404c0000  .@H....H.E..@L..
 402bb0 0000905d c3554889 e54883ec 1048897d  ...].UH..H...H.}
 402bc0 f8488975 f0bfb82d 4000e8a1 ddffffbf  .H.u...-@.......
 402bd0 c12d4000 e897ddff ffbfd02d 4000e88d  .-@........-@...
 402be0 ddffff90 c9c3662e 0f1f8400 00000000  ......f.........
 402bf0 41574156 4189ff41 5541544c 8d250e12  AWAVA..AUATL.%..
 402c00 20005548 8d2d0e12 20005349 89f64989   .UH.-.. .SI..I.
 402c10 d54c29e5 4883ec08 48c1fd03 e8ffdcff  .L).H...H.......
 402c20 ff4885ed 742031db 0f1f8400 00000000  .H..t 1.........
 402c30 4c89ea4c 89f64489 ff41ff14 dc4883c3  L..L..D..A...H..
 402c40 014839eb 75ea4883 c4085b5d 415c415d  .H9.u.H...[]A\A]
 402c50 415e415f c390662e 0f1f8400 00000000  A^A_..f.........
 402c60 f3c3                                 ..              
Contents of section .fini:
 402c64 4883ec08 4883c408 c3                 H...H....       
Contents of section .rodata:
 402c70 01000200 00000000 65786974 00636400  ........exit.cd.
 402c80 68656c70 00000000 7368656c 6c2b2b0a  help....shell++.
 402c90 4a616b65 2053616c 747a6d61 6e0a4353  Jake Saltzman.CS
 402ca0 34343134 20537072 696e6720 32303137  4414 Spring 2017
 402cb0 0a007370 70242000 2573007c 00000000  ..spp$ .%s.|....
 402cc0 0f0d4000 00000000 de0d4000 00000000  ..@.......@.....
 402cd0 140e4000 00000000 680e4000 00000000  ..@.....h.@.....
 402ce0 08124000 00000000 3d0d4000 00000000  ..@.....=.@.....
 402cf0 42104000 00000000 2a144000 00000000  B.@.....*.@.....
 402d00 5e5b412d 5a612d7a 302d395b 3a737061  ^[A-Za-z0-9[:spa
 402d10 63653a5d 5c2e5c5f 5c2d5d2b 285b3c7c  ce:]\.\_\-]+([<|
 402d20 3e5d3f5b 5b3a7370 6163653a 5d5d2a5b  >]?[[:space:]]*[
 402d30 412d5a61 2d7a302d 395c2e5f 5d2b5b41  A-Za-z0-9\._]+[A
 402d40 2d5a612d 7a302d39 5b3a7370 6163653a  -Za-z0-9[:space:
 402d50 5d5c2e5c 5f5c2d5d 2a292a24 00455252  ]\.\_\-]*)*$.ERR
 402d60 4f522025 643a2025 730a0020 00000000  OR %d: %s.. ....
 402d70 9c1a4000 00000000 db1a4000 00000000  ..@.......@.....
 402d80 5a1b4000 00000000 b01b4000 00000000  Z.@.......@.....
 402d90 711b4000 00000000 c71b4000 00000000  q.@.......@.....
 402da0 061c4000 00000000 881c4000 00000000  ..@.......@.....
 402db0 b01c4000 00000000 53505020 48454c50  ..@.....SPP HELP
 402dc0 002d2d2d 2d2d2d2d 2d000000 00000000  .--------.......
 402dd0 54797065 20636f6d 6d616e64 7321204f  Type commands! O
 402de0 74686572 206f7074 696f6e73 20617265  ther options are
 402df0 20636420 616e6420 65786974 00         cd and exit.   
Contents of section .eh_frame_hdr:
 402e00 011b033b a4000000 13000000 40dbffff  ...;........@...
 402e10 f0000000 e0dcffff c0000000 d6ddffff  ................
 402e20 18010000 f5ddffff 38010000 bddeffff  ........8.......
 402e30 58010000 58e6ffff 80010000 7fe7ffff  X...X...........
 402e40 a0010000 2cebffff c0010000 7cebffff  ....,.......|...
 402e50 e0010000 66ecffff 00020000 c2eeffff  ....f...........
 402e60 28020000 3fefffff 48020000 62f1ffff  (...?...H...b...
 402e70 68020000 00f9ffff 98020000 bffbffff  h...............
 402e80 b8020000 23fdffff d8020000 b5fdffff  ....#...........
 402e90 f8020000 f0fdffff 18030000 60feffff  ............`...
 402ea0 60030000                             `...            
Contents of section .eh_frame:
 402ea8 14000000 00000000 017a5200 01781001  .........zR..x..
 402eb8 1b0c0708 90010710 14000000 1c000000  ................
 402ec8 18dcffff 2a000000 00000000 00000000  ....*...........
 402ed8 14000000 00000000 017a5200 01781001  .........zR..x..
 402ee8 1b0c0708 90010000 24000000 1c000000  ........$.......
 402ef8 48daffff 90010000 000e1046 0e184a0f  H..........F..J.
 402f08 0b770880 003f1a3b 2a332422 00000000  .w...?.;*3$"....
 402f18 1c000000 44000000 b6dcffff 1f000000  ....D...........
 402f28 00410e10 8602430d 065a0c07 08000000  .A....C..Z......
 402f38 1c000000 64000000 b5dcffff c8000000  ....d...........
 402f48 00410e10 8602430d 0602c30c 07080000  .A....C.........
 402f58 24000000 84000000 5dddffff 9b070000  $.......].......
 402f68 00410e10 8602430d 06458303 0391070c  .A....C..E......
 402f78 07080000 00000000 1c000000 ac000000  ................
 402f88 d0e4ffff 27010000 00410e10 8602430d  ....'....A....C.
 402f98 06032201 0c070800 1c000000 cc000000  ..".............
 402fa8 d7e5ffff ad030000 00410e10 8602430d  .........A....C.
 402fb8 0603a803 0c070800 1c000000 ec000000  ................
 402fc8 64e9ffff 50000000 00410e10 8602430d  d...P....A....C.
 402fd8 06024b0c 07080000 1c000000 0c010000  ..K.............
 402fe8 94e9ffff ea000000 00410e10 8602430d  .........A....C.
 402ff8 0602e50c 07080000 24000000 2c010000  ........$...,...
 403008 5eeaffff 5c020000 00410e10 8602430d  ^...\....A....C.
 403018 06458303 0352020c 07080000 00000000  .E...R..........
 403028 1c000000 54010000 92ecffff 7d000000  ....T.......}...
 403038 00410e10 8602430d 0602780c 07080000  .A....C...x.....
 403048 1c000000 74010000 efecffff 23020000  ....t.......#...
 403058 00410e10 8602430d 06031e02 0c070800  .A....C.........
 403068 2c000000 94010000 f2eeffff 9e070000  ,...............
 403078 00410e10 8602430d 064d8f03 8e048d05  .A....C..M......
 403088 8c068307 038c070c 07080000 00000000  ................
 403098 1c000000 c4010000 60f6ffff bf020000  ........`.......
 4030a8 00410e10 8602430d 0603ba02 0c070800  .A....C.........
 4030b8 1c000000 e4010000 fff8ffff 64010000  ............d...
 4030c8 00410e10 8602430d 06035f01 0c070800  .A....C..._.....
 4030d8 1c000000 04020000 43faffff 92000000  ........C.......
 4030e8 00410e10 8602430d 06028d0c 07080000  .A....C.........
 4030f8 1c000000 24020000 b5faffff 31000000  ....$.......1...
 403108 00410e10 8602430d 066c0c07 08000000  .A....C..l......
 403118 44000000 44020000 d0faffff 65000000  D...D.......e...
 403128 00420e10 8f02420e 188e0345 0e208d04  .B....B....E. ..
 403138 420e288c 05480e30 8606480e 3883074d  B.(..H.0..H.8..M
 403148 0e40720e 38410e30 410e2842 0e20420e  .@r.8A.0A.(B. B.
 403158 18420e10 420e0800 14000000 8c020000  .B..B...........
 403168 f8faffff 02000000 00000000 00000000  ................
 403178 00000000                             ....            
Contents of section .init_array:
 603e10 b00b4000 00000000                    ..@.....        
Contents of section .fini_array:
 603e18 900b4000 00000000                    ..@.....        
Contents of section .jcr:
 603e20 00000000 00000000                    ........        
Contents of section .dynamic:
 603e28 01000000 00000000 01000000 00000000  ................
 603e38 0c000000 00000000 20094000 00000000  ........ .@.....
 603e48 0d000000 00000000 642c4000 00000000  ........d,@.....
 603e58 19000000 00000000 103e6000 00000000  .........>`.....
 603e68 1b000000 00000000 08000000 00000000  ................
 603e78 1a000000 00000000 183e6000 00000000  .........>`.....
 603e88 1c000000 00000000 08000000 00000000  ................
 603e98 f5feff6f 00000000 98024000 00000000  ...o......@.....
 603ea8 05000000 00000000 48054000 00000000  ........H.@.....
 603eb8 06000000 00000000 c0024000 00000000  ..........@.....
 603ec8 0a000000 00000000 f2000000 00000000  ................
 603ed8 0b000000 00000000 18000000 00000000  ................
 603ee8 15000000 00000000 00000000 00000000  ................
 603ef8 03000000 00000000 00406000 00000000  .........@`.....
 603f08 02000000 00000000 40020000 00000000  ........@.......
 603f18 14000000 00000000 07000000 00000000  ................
 603f28 17000000 00000000 e0064000 00000000  ..........@.....
 603f38 07000000 00000000 b0064000 00000000  ..........@.....
 603f48 08000000 00000000 30000000 00000000  ........0.......
 603f58 09000000 00000000 18000000 00000000  ................
 603f68 feffff6f 00000000 70064000 00000000  ...o....p.@.....
 603f78 ffffff6f 00000000 01000000 00000000  ...o............
 603f88 f0ffff6f 00000000 3a064000 00000000  ...o....:.@.....
 603f98 00000000 00000000 00000000 00000000  ................
 603fa8 00000000 00000000 00000000 00000000  ................
 603fb8 00000000 00000000 00000000 00000000  ................
 603fc8 00000000 00000000 00000000 00000000  ................
 603fd8 00000000 00000000 00000000 00000000  ................
 603fe8 00000000 00000000 00000000 00000000  ................
Contents of section .got:
 603ff8 00000000 00000000                    ........        
Contents of section .got.plt:
 604000 283e6000 00000000 00000000 00000000  (>`.............
 604010 00000000 00000000 56094000 00000000  ........V.@.....
 604020 66094000 00000000 76094000 00000000  f.@.....v.@.....
 604030 86094000 00000000 96094000 00000000  ..@.......@.....
 604040 a6094000 00000000 b6094000 00000000  ..@.......@.....
 604050 c6094000 00000000 d6094000 00000000  ..@.......@.....
 604060 e6094000 00000000 f6094000 00000000  ..@.......@.....
 604070 060a4000 00000000 160a4000 00000000  ..@.......@.....
 604080 260a4000 00000000 360a4000 00000000  &.@.....6.@.....
 604090 460a4000 00000000 560a4000 00000000  F.@.....V.@.....
 6040a0 660a4000 00000000 760a4000 00000000  f.@.....v.@.....
 6040b0 860a4000 00000000 960a4000 00000000  ..@.......@.....
 6040c0 a60a4000 00000000 b60a4000 00000000  ..@.......@.....
 6040d0 c60a4000 00000000                    ..@.....        
Contents of section .data:
 6040e0 00000000 00000000 00000000 00000000  ................
 6040f0 782c4000 00000000 7d2c4000 00000000  x,@.....},@.....
 604100 802c4000 00000000 00000000 00000000  .,@.............
 604110 232b4000 00000000 bf294000 00000000  #+@......)@.....
 604120 b52b4000 00000000                    .+@.....        
Contents of section .comment:
 0000 4743433a 20285562 756e7475 20352e34  GCC: (Ubuntu 5.4
 0010 2e302d36 7562756e 7475317e 31362e30  .0-6ubuntu1~16.0
 0020 342e3429 20352e34 2e302032 30313630  4.4) 5.4.0 20160
 0030 36303900                             609.            
Contents of section .debug_aranges:
 0000 2c000000 02000000 00000800 00000000  ,...............
 0010 d60b4000 00000000 10200000 00000000  ..@...... ......
 0020 00000000 00000000 00000000 00000000  ................
Contents of section .debug_info:
 0000 c90d0000 04000000 00000801 32040000  ............2...
 0010 0cb50000 00ab0100 00d60b40 00000000  ...........@....
 0020 00102000 00000000 00000000 00028201  .. .............
 0030 000002d8 38000000 030807f5 04000004  ....8...........
 0040 0405696e 74000308 05b80200 00030805  ..int...........
 0050 b3020000 03010837 05000003 0207c405  .......7........
 0060 00000304 07fa0400 00030106 39050000  ............9...
 0070 030205df 03000002 95050000 03834600  ..............F.
 0080 00000233 06000003 84460000 00030807  ...3.....F......
 0090 ec040000 05080608 9c000000 03010640  ...............@
 00a0 05000007 19050000 d804f120 02000008  ........... ....
 00b0 76000000 04f23f00 00000008 2c020000  v.....?.....,...
 00c0 04f79600 00000808 d2030000 04f89600  ................
 00d0 00001008 9d010000 04f99600 00001808  ................
 00e0 8f020000 04fa9600 00002008 4b050000  .......... .K...
 00f0 04fb9600 00002808 54000000 04fc9600  ......(.T.......
 0100 00003008 46060000 04fd9600 00003808  ..0.F.........8.
 0110 2e000000 04fe9600 00004009 c1020000  ..........@.....
 0120 04000196 00000048 09450100 00040101  .......H.E......
 0130 96000000 5009fe00 00000402 01960000  ....P...........
 0140 00580987 00000004 04015802 00006009  .X........X...`.
 0150 03060000 0406015e 02000068 09550100  .......^...h.U..
 0160 00040801 3f000000 70091706 0000040c  ....?...p.......
 0170 013f0000 00740907 05000004 0e017700  .?...t........w.
 0180 00007809 27060000 0412015b 00000080  ..x.'......[....
 0190 09420300 00041301 69000000 82091900  .B......i.......
 01a0 00000414 01640200 008309e6 04000004  .....d..........
 01b0 18017402 00008809 0b050000 04210182  ..t..........!..
 01c0 00000090 090e0300 00042901 94000000  ..........).....
 01d0 98091503 0000042a 01940000 00a0091c  .......*........
 01e0 03000004 2b019400 0000a809 23030000  ....+.......#...
 01f0 042c0194 000000b0 092a0300 00042e01  .,.......*......
 0200 2d000000 b809fb01 0000042f 013f0000  -........../.?..
 0210 00c0093d 06000004 31017a02 0000c400  ...=....1.z.....
 0220 0a230000 00049607 21020000 18049c58  .#......!......X
 0230 02000008 e4010000 049d5802 00000008  ..........X.....
 0240 45050000 049e5e02 00000808 df000000  E.....^.........
 0250 04a23f00 00001000 06082702 00000608  ..?.......'.....
 0260 a3000000 0b9c0000 00740200 000c8d00  .........t......
 0270 00000000 06082002 00000b9c 0000008a  ...... .........
 0280 0200000c 8d000000 13000608 90020000  ................
 0290 0d9c0000 0002e903 0000052a 38000000  ...........*8...
 02a0 0e010200 00400565 01790300 00096902  .....@.e.y....i.
 02b0 0000056a 01790300 000009fa 02000005  ...j.y..........
 02c0 6d013800 00000809 2b040000 05700138  m.8.....+....p.8
 02d0 00000010 09720100 00057301 95020000  .....r....s.....
 02e0 18095f05 00000578 01960000 0020098b  .._....x..... ..
 02f0 03000005 7e017903 00002809 a5050000  ....~.y...(.....
 0300 0581012d 00000030 0f640100 00058701  ...-...0.d......
 0310 62000000 04011f38 0f7e0200 00059201  b......8.~......
 0320 62000000 04021d38 0fa40300 00059601  b......8........
 0330 62000000 04011c38 0f3a0000 00059a01  b......8.:......
 0340 62000000 04011b38 0fba0500 00059e01  b......8........
 0350 62000000 04011a38 0f7d0000 0005a101  b......8.}......
 0360 62000000 04011938 0f0b0100 0005a401  b......8........
 0370 62000000 04011838 00060854 00000010  b......8...T....
 0380 9e020000 05a701a0 02000011 04620000  .............b..
 0390 00065bc8 03000012 77030000 00120603  ..[.....w.......
 03a0 00000112 0a060000 0212a000 00000312  ................
 03b0 90000000 0412ad05 00000512 9d050000  ................
 03c0 0612db01 00000700 02f30000 0006648b  ..............d.
 03d0 03000011 04620000 00066616 04000012  .....b....f.....
 03e0 a9040000 00125e02 00000112 13020000  ......^.........
 03f0 02125803 00000312 1c010000 04123603  ..X...........6.
 0400 00000512 d2010000 06126200 00000712  ..........b.....
 0410 71050000 08000249 02000006 70d30300  q......I....p...
 0420 00110462 00000006 723f0400 00134f4b  ...b....r?....OK
 0430 000012e0 04000001 13455252 00020002  .........ERR....
 0440 ed030000 06762104 00001430 0678a704  .....v!....0.x..
 0450 0000087b 01000006 79960000 00000865  ...{....y......e
 0460 03000006 7aa70400 000808d8 00000006  ....z...........
 0470 7b3f0000 001008b7 03000006 7d3f0000  {?..........}?..
 0480 001408fe 03000006 7e3f0000 001808d7  ........~?......
 0490 05000006 80960000 00200890 04000006  ......... ......
 04a0 81960000 00280006 08960000 0002cc01  .....(..........
 04b0 00000682 4a040000 14180684 e5040000  ....J...........
 04c0 08c00400 00068596 00000000 08310300  .............1..
 04d0 000687e5 04000008 08c80300 0006883f  ...............?
 04e0 00000010 000608ad 04000002 98000000  ................
 04f0 0689b804 00001450 068c3b05 000008ec  .......P..;.....
 0500 05000006 8d3f0000 000008f4 02000006  .....?..........
 0510 8e3f0000 0004156d 73670006 8f3b0500  .?.....msg...;..
 0520 000808d2 00000006 903f0000 00480859  .........?...H.Y
 0530 05000006 913f0000 004c000b 9c000000  .....?...L......
 0540 4b050000 0c8d0000 003f0002 f6030000  K........?......
 0550 0692f604 000016e7 05000001 043f0000  .............?..
 0560 00d60b40 00000000 001f0000 00000000  ...@............
 0570 00019c17 97030000 010cf50b 40000000  ............@...
 0580 0000c800 00000000 0000019c be050000  ................
 0590 186a0300 000111c8 03000003 91ec7e18  .j............~.
 05a0 9e030000 0112eb04 00000391 f07e185d  .............~.]
 05b0 01000001 134b0500 00039190 7f00192c  .....K.........,
 05c0 05000001 20c80300 00bd0c40 00000000  .... ......@....
 05d0 009b0700 00000000 00019c12 0700001a  ................
 05e0 43000000 0120c803 00000391 9c7f1a9e  C.... ..........
 05f0 03000001 20120700 00039190 7f1a5d01  .... .........].
 0600 00000120 18070000 0391887f 18320100  ... .........2..
 0610 000121c8 03000003 91b07f1b 00000000  ..!.............
 0620 34060000 18000000 0001613f 04000003  4.........a?....
 0630 91ac7f00 1c8c0e40 00000000 00b10100  .......@........
 0640 00000000 00720600 001d746f 6b000178  .....r....tok..x
 0650 96000000 0291501d 6a000179 3f000000  ......P.j..y?...
 0660 0391b47f 1d6b0001 7a3f0000 000391b8  .....k..z?......
 0670 7f001c42 10400000 000000c1 01000000  ...B.@..........
 0680 000000a1 0600001d 6a00019a 3f000000  ........j...?...
 0690 0391bc7f 1d690001 9b3f0000 00029140  .....i...?.....@
 06a0 001e0812 40000000 00002002 00000000  ....@..... .....
 06b0 00001d69 0001ba3f 00000002 91441c11  ...i...?.....D..
 06c0 12400000 0000004d 00000000 000000e1  .@.....M........
 06d0 0600001d 65710001 bc3f0000 00029148  ....eq...?.....H
 06e0 001e9712 40000000 00008a01 00000000  ....@...........
 06f0 00001d70 69640001 c63f0000 0002914c  ...pid...?.....L
 0700 186f0000 0001c73f 00000003 91ac7f00  .o.....?........
 0710 00000608 eb040000 06084b05 00001f3c  ..........K....<
 0720 01000001 e4581440 00000000 00270100  .....X.@.....'..
 0730 00000000 00019cb0 0700001a 7d050000  ............}...
 0740 01e49600 00000291 481a5d01 000001e4  ........H.].....
 0750 18070000 02914018 89010000 01e99c00  ......@.........
 0760 00000291 5718f201 000001ea 96000000  ....W...........
 0770 02916818 ad000000 01eb3f00 00000291  ..h.......?.....
 0780 58181a04 000001ec 3f000000 02915c18  X.......?.....\.
 0790 8f050000 01ed3f00 00000291 60204000  ......?.....` @.
 07a0 00001d63 0001ff3f 00000002 91640000  ...c...?.....d..
 07b0 21720200 00010801 7f154000 00000000  !r........@.....
 07c0 ad030000 00000000 019c3908 000022bf  ..........9...".
 07d0 00000001 08019600 00000291 48220000  ............H"..
 07e0 00000108 01390800 00029140 225d0100  .....9.....@"]..
 07f0 00010801 18070000 0391b87f 23510300  ............#Q..
 0800 00010d01 96000000 02916823 4b000000  ..........h#K...
 0810 010e013f 00000002 9160236f 00000001  ...?.....`#o....
 0820 0f013f00 00000291 64232205 00000110  ..?.....d#".....
 0830 013f0000 0002915c 0006083f 04000021  .?.....\...?...!
 0840 0d000000 0148012c 19400000 00000050  .....H.,.@.....P
 0850 00000000 00000001 9c6d0800 0022c401  .........m..."..
 0860 00000148 01180700 00029168 0021c600  ...H.......h.!..
 0870 00000151 017c1940 00000000 00ea0000  ...Q.|.@........
 0880 00000000 00019ce7 08000022 9e030000  ..........."....
 0890 01510112 07000002 9148225d 01000001  .Q.......H"]....
 08a0 51011807 00000291 40246900 0152013f  Q.......@$i..R.?
 08b0 00000002 91581ea7 19400000 00000094  .....X...@......
 08c0 00000000 00000023 96010000 01540116  .......#.....T..
 08d0 04000002 915c2351 03000001 56019600  .....\#Q....V...
 08e0 00000291 60000025 a6020000 01600116  ....`..%.....`..
 08f0 04000066 1a400000 0000005c 02000000  ...f.@.....\....
 0900 00000001 9c760900 00224300 00000160  .....v..."C....`
 0910 01160400 0002914c 22510300 00016001  .......L"Q....`.
 0920 a7040000 02914022 e4000000 016001e5  ......@".....`..
 0930 04000003 91b87f22 5d010000 01600118  ......."]....`..
 0940 07000003 91b07f23 32010000 01610116  .......#2....a..
 0950 04000002 91581e06 1c400000 00000080  .....X...@......
 0960 00000000 00000024 6b000189 013f0000  .......$k....?..
 0970 0002915c 000026cd 04000001 9b01c21c  ...\..&.........
 0980 40000000 00007d00 00000000 0000019c  @.....}.........
 0990 d0090000 229e0300 00019b01 12070000  ...."...........
 09a0 02915824 6900019c 013f0000 00029168  ..X$i....?.....h
 09b0 1ed31c40 00000000 00590000 00000000  ...@.....Y......
 09c0 00246a00 01a1013f 00000002 916c0000  .$j....?.....l..
 09d0 219f0400 0001ae01 3f1d4000 00000000  !.......?.@.....
 09e0 23020000 00000000 019c620a 0000229e  #.........b...".
 09f0 03000001 ae011207 00000291 58225d01  ............X"].
 0a00 000001ae 01180700 00029150 22ed0200  ...........P"...
 0a10 0001ae01 3f000000 02914c1c 7b1d4000  ....?.....L.{.@.
 0a20 00000000 e0000000 00000000 400a0000  ............@...
 0a30 23820300 0001b201 3f000000 02916800  #.......?.....h.
 0a40 1e841e40 00000000 00db0000 00000000  ...@............
 0a50 00238203 000001bf 013f0000 0002916c  .#.......?.....l
 0a60 00002139 02000001 c901621f 40000000  ..!9......b.@...
 0a70 00009e07 00000000 0000019c 030c0000  ................
 0a80 229e0300 0001c901 12070000 0391e87e  "..............~
 0a90 225d0100 0001c901 18070000 0391e07e  "].............~
 0aa0 22cf0200 0001c901 3f000000 0391dc7e  ".......?......~
 0ab0 22b70400 0001c901 3f000000 0391d87e  ".......?......~
 0ac0 1ea91f40 00000000 00330700 00000000  ...@.....3......
 0ad0 00238b04 000001cd 01030c00 000491a0  .#..............
 0ae0 7f062369 05000001 ce01170c 00000491  ..#i............
 0af0 b07f0624 690001cf 013f0000 000391f4  ...$i....?......
 0b00 7e246a00 01d0013f 00000003 91f87e23  ~$j....?......~#
 0b10 87050000 01d1013f 00000003 91887f23  .......?.......#
 0b20 6f000000 01d2013f 00000003 91f07e1c  o......?......~.
 0b30 b6214000 00000000 9f010000 00000000  .!@.............
 0b40 750b0000 246b0001 e4013f00 00000391  u...$k....?.....
 0b50 fc7e1e63 22400000 000000f2 00000000  .~.c"@..........
 0b60 00000023 82030000 01ec013f 00000003  ...#.......?....
 0b70 918c7f00 001c6b23 40000000 0000ad01  ......k#@.......
 0b80 00000000 0000bb0b 0000246b 0001f801  ..........$k....
 0b90 3f000000 0391807f 1e212440 00000000  ?........!$@....
 0ba0 00f70000 00000000 00238203 000001ff  .........#......
 0bb0 013f0000 00039190 7f00001c 18254000  .?...........%@.
 0bc0 00000000 be000000 00000000 df0b0000  ................
 0bd0 246b0001 0b023f00 00000391 847f001e  $k....?.........
 0be0 4e264000 00000000 2f000000 00000000  N&@...../.......
 0bf0 236f0000 00011f02 3f000000 0391947f  #o......?.......
 0c00 0000000b 3f000000 170c0000 278d0000  ....?.......'...
 0c10 00049198 7f06000b 3f000000 310c0000  ........?...1...
 0c20 278d0000 000491a8 7f060c8d 00000001  '...............
 0c30 0026f205 0000012a 02002740 00000000  .&.....*..'@....
 0c40 00bf0200 00000000 00019c7b 0c000022  ...........{..."
 0c50 9e030000 012a0212 07000002 9158225d  .....*.......X"]
 0c60 01000001 2a021807 00000291 50246900  ....*.......P$i.
 0c70 012b023f 00000002 916c0021 29010000  .+.?.....l.!)...
 0c80 013f02bf 29400000 00000064 01000000  .?..)@.....d....
 0c90 00000001 9cc70c00 00229e03 0000013f  .........".....?
 0ca0 02120700 00029158 225d0100 00013f02  .......X"]....?.
 0cb0 18070000 02915023 6d000000 0140023f  ......P#m....@.?
 0cc0 00000002 916c0026 1f060000 014c0223  .....l.&.....L.#
 0cd0 2b400000 00000092 00000000 00000001  +@..............
 0ce0 9c040d00 00229e03 0000014c 02120700  .....".....L....
 0cf0 00029168 225d0100 00014c02 18070000  ...h"]....L.....
 0d00 02916000 21ea0100 00015002 b52b4000  ..`.!.....P..+@.
 0d10 00000000 31000000 00000000 019c410d  ....1.........A.
 0d20 0000229e 03000001 50021207 00000291  ..".....P.......
 0d30 68225d01 00000150 02180700 00029160  h"]....P.......`
 0d40 00281305 000007a8 5e020000 28ec0000  .(......^...(...
 0d50 0007a95e 02000029 57020000 06577f03  ...^...)W....W..
 0d60 00000903 60416000 00000000 0b8a0200  ....`A`.........
 0d70 007c0d00 000c8d00 00000200 29da0200  .|..........)...
 0d80 0006b36c 0d000009 03f04060 00000000  ...l......@`....
 0d90 000ba10d 0000a10d 00000c8d 00000002  ................
 0da0 000608a7 0d00002a b70d0000 2b120700  .......*....+...
 0db0 002b1807 00000029 0e040000 06b9910d  .+.....)........
 0dc0 00000903 10416000 00000000 00        .....A`......   
Contents of section .debug_abbrev:
 0000 01110125 0e130b03 0e1b0e11 01120710  ...%............
 0010 17000002 1600030e 3a0b3b0b 49130000  ........:.;.I...
 0020 0324000b 0b3e0b03 0e000004 24000b0b  .$...>......$...
 0030 3e0b0308 0000050f 000b0b00 00060f00  >...............
 0040 0b0b4913 00000713 01030e0b 0b3a0b3b  ..I..........:.;
 0050 0b011300 00080d00 030e3a0b 3b0b4913  ..........:.;.I.
 0060 380b0000 090d0003 0e3a0b3b 05491338  8........:.;.I.8
 0070 0b00000a 1600030e 3a0b3b0b 00000b01  ........:.;.....
 0080 01491301 1300000c 21004913 2f0b0000  .I......!.I./...
 0090 0d260049 1300000e 1301030e 0b0b3a0b  .&.I..........:.
 00a0 3b050113 00000f0d 00030e3a 0b3b0549  ;..........:.;.I
 00b0 130b0b0d 0b0c0b38 0b000010 1600030e  .......8........
 00c0 3a0b3b05 49130000 1104010b 0b49133a  :.;.I........I.:
 00d0 0b3b0b01 13000012 2800030e 1c0b0000  .;......(.......
 00e0 13280003 081c0b00 00141301 0b0b3a0b  .(............:.
 00f0 3b0b0113 0000150d 0003083a 0b3b0b49  ;..........:.;.I
 0100 13380b00 00162e00 3f19030e 3a0b3b0b  .8......?...:.;.
 0110 49131101 12074018 96421900 00172e01  I.....@..B......
 0120 3f19030e 3a0b3b0b 11011207 40189642  ?...:.;.....@..B
 0130 19011300 00183400 030e3a0b 3b0b4913  ......4...:.;.I.
 0140 02180000 192e013f 19030e3a 0b3b0b27  .......?...:.;.'
 0150 19491311 01120740 18964219 01130000  .I.....@..B.....
 0160 1a050003 0e3a0b3b 0b491302 1800001b  .....:.;.I......
 0170 0b015517 01130000 1c0b0111 01120701  ..U.............
 0180 1300001d 34000308 3a0b3b0b 49130218  ....4...:.;.I...
 0190 00001e0b 01110112 0700001f 2e013f19  ..............?.
 01a0 030e3a0b 3b0b2719 11011207 40189642  ..:.;.'.....@..B
 01b0 19011300 00200b01 55170000 212e013f  ..... ..U...!..?
 01c0 19030e3a 0b3b0527 19110112 07401896  ...:.;.'.....@..
 01d0 42190113 00002205 00030e3a 0b3b0549  B....."....:.;.I
 01e0 13021800 00233400 030e3a0b 3b054913  .....#4...:.;.I.
 01f0 02180000 24340003 083a0b3b 05491302  ....$4...:.;.I..
 0200 18000025 2e013f19 030e3a0b 3b052719  ...%..?...:.;.'.
 0210 49131101 12074018 96421901 13000026  I.....@..B.....&
 0220 2e013f19 030e3a0b 3b052719 11011207  ..?...:.;.'.....
 0230 40189742 19011300 00272100 49132f18  @..B.....'!.I./.
 0240 00002834 00030e3a 0b3b0b49 133f193c  ..(4...:.;.I.?.<
 0250 19000029 3400030e 3a0b3b0b 49133f19  ...)4...:.;.I.?.
 0260 02180000 2a150127 19011300 002b0500  ....*..'.....+..
 0270 49130000 00                          I....           
Contents of section .debug_line:
 0000 42040000 0200b900 00000101 fb0e0d00  B...............
 0010 01010101 00000001 00000173 7263002f  ...........src./
 0020 7573722f 6c69622f 6763632f 7838365f  usr/lib/gcc/x86_
 0030 36342d6c 696e7578 2d676e75 2f352f69  64-linux-gnu/5/i
 0040 6e636c75 6465002f 7573722f 696e636c  nclude./usr/incl
 0050 7564652f 7838365f 36342d6c 696e7578  ude/x86_64-linux
 0060 2d676e75 2f626974 73002f75 73722f69  -gnu/bits./usr/i
 0070 6e636c75 64650000 7370702e 63000100  nclude..spp.c...
 0080 00737464 6465662e 68000200 00747970  .stddef.h....typ
 0090 65732e68 00030000 6c696269 6f2e6800  es.h....libio.h.
 00a0 04000072 65676578 2e680004 00007370  ...regex.h....sp
 00b0 702e6800 01000073 7464696f 2e680004  p.h....stdio.h..
 00c0 00000000 0902d60b 40000000 0000154b  ........@......K
 00d0 9fa05931 ace99f08 75023815 08cb9108  ..Y1....u.8.....
 00e0 4b230868 083ce577 9f78030a 0866083d  K#.h.<.w.x...f.=
 00f0 da7560bb ad927702 75145f08 3d085c75  .u`...w.u._.=.\u
 0100 030a5875 08927503 09740379 58837a55  ..Xu..u..t.yX.zU
 0110 775f0875 031e7403 65587576 08910002  w_.u..t.eXuv....
 0120 0403bb00 02040302 32130002 04030232  ........2......2
 0130 13000204 03022c13 00020403 022d0e00  ......,......-..
 0140 02040106 4a06a508 75752f02 30134b08  ....J...uu/.0.K.
 0150 2b7aa008 2fbb082f 77030958 bb000204  +z../../w..X....
 0160 03910002 0403023a 11000204 01064a00  .......:......J.
 0170 02040206 02261500 02040202 25130002  .....&......%...
 0180 04020225 0d000204 01064a06 fa750002  ...%......J..u..
 0190 0403bb00 02040302 2a130002 0403022a  ........*......*
 01a0 13000204 03022913 00020403 022a0e00  ......)......*..
 01b0 02040106 4a06a4ad f376030b 5892022a  ....J....v..X..*
 01c0 13670002 040208b6 00020401 064a066e  .g...........J.n
 01d0 bb022316 8468089f 9f028801 16087502  ..#..h........u.
 01e0 26130287 0113a275 31e5233d 08a0f3db  &......u1.#=....
 01f0 83757577 0822679f 59507e75 5c750287  .uuw."g.YP~u\u..
 0200 01152f1f 00020401 06d60668 03642e03  ../........h.d..
 0210 1c3c2430 083dda83 75757508 699f0287  .<$0.=..uuu.i...
 0220 01150224 14ad9f5b 9f028901 139f5dad  ...$...[......].
 0230 755959ad 75595a5b 082f0287 01139f5b  uYY.uYZ[./.....[
 0240 036d9e03 16e48359 00020401 06e40608  .m.....Y........
 0250 2f028901 139f309f 03795803 4d081203  /.....0..yX.M...
 0260 3c2030bb ad08e6bb a03ef2e6 bb750225  < 0......>...u.%
 0270 13022514 023a1369 2c037920 00020402  ..%..:.i,.y ....
 0280 064a0603 0bf20868 08757608 68084b08  .J.....h.uv.h.K.
 0290 c9755a08 83000204 0106ba06 d7030974  .uZ............t
 02a0 037858d7 7b037a58 d7795577 5aad755a  .xX.{.zX.yUwZ.uZ
 02b0 08830891 755aad75 5a088308 91755a9f  ....uZ.uZ....uZ.
 02c0 02341302 2a130813 753008d7 75307523  .4..*...u0..u0u#
 02d0 3d768693 00020402 06900002 04014a06  =v............J.
 02e0 02261508 31037708 2e000204 01064a06  .&..1.w.......J.
 02f0 030dba3e 08300229 15023c13 9f028101  ...>.0.)..<.....
 0300 14e5a302 29150237 139f0281 0114e5a0  ....)..7........
 0310 3e022b12 e5ca6702 6a13026d 19bb08d7  >.+...g.j..m....
 0320 9f029d01 13000204 02540002 0401064a  .........T.....J
 0330 060860bb 083d084c 9f089108 3e918308  ..`..=.L....>...
 0340 3d086400 0204021f 00020401 064a0608  =.d..........J..
 0350 26022c14 023a139f 02900114 e5e70859  &.,..:.........Y
 0360 08ad0876 91ad083d 08640002 04021f00  ...v...=.d......
 0370 02040106 4a060825 022c1402 3f139f02  ....J..%.,..?...
 0380 900114e5 e8089108 ae91ad08 6783085a  ............g..Z
 0390 083d0002 04020379 084a0002 0401064a  .=.....y.J.....J
 03a0 06030d08 20000204 02034402 58010002  .... .....D.X...
 03b0 0401064a 0603c100 082e0002 04039200  ...J............
 03c0 02040308 67000204 03087100 02040106  ....g.....q.....
 03d0 4a060826 00020403 91000204 0308e300  J..&............
 03e0 02040106 4a0603a7 7f08ac03 dd002002  ....J......... .
 03f0 2314bcf3 bb9f0229 13029801 14082f02  #......)....../.
 0400 29130298 01150002 04010602 25120602  )...........%...
 0410 29130002 04020375 02930101 00020401  )......u........
 0420 064a0603 10f23ef4 08ad0281 011a5308  .J....>.......S.
 0430 c99f0287 01153ebb 02830113 3ef39f9f  ......>.....>...
 0440 a0020300 0101                        ......          
Contents of section .debug_str:
 0000 73796e74 61787374 61747573 0048616e  syntaxstatus.Han
 0010 646c6545 72726f72 005f7368 6f727462  dleError._shortb
 0020 7566005f 494f5f6c 6f636b5f 74005f49  uf._IO_lock_t._I
 0030 4f5f6275 665f656e 64005f5f 6e6f5f73  O_buf_end.__no_s
 0040 75620073 74617465 696e0072 65676d61  ub.statein.regma
 0050 74636800 5f494f5f 77726974 655f656e  tch._IO_write_en
 0060 6400434c 45414e55 505f5053 00636473  d.CLEANUP_PS.cds
 0070 74617475 73005f66 6c616773 005f5f6e  tatus._flags.__n
 0080 6f745f65 6f6c005f 6d61726b 65727300  ot_eol._markers.
 0090 45584543 55544500 73646174 615f7400  EXECUTE.sdata_t.
 00a0 45585452 4143545f 434d4453 00737472  EXTRACT_CMDS.str
 00b0 73697a65 00737263 2f737070 2e630073  size.src/spp.c.s
 00c0 72636275 66004578 74726163 74436d64  rcbuf.ExtractCmd
 00d0 73007866 6c616700 61726773 6374005f  s.xflag.argsct._
 00e0 706f7300 636d6464 61746100 7374646f  pos.cmddata.stdo
 00f0 75740073 70707374 6174655f 74005f49  ut.sppstate_t._I
 0100 4f5f7361 76655f65 6e64005f 5f6e6577  O_save_end.__new
 0110 6c696e65 5f616e63 686f7200 5345545f  line_anchor.SET_
 0120 5354444f 5554464e 00537070 43686469  STDOUTFN.SppChdi
 0130 72006e65 78747374 61746500 47726162  r.nextstate.Grab
 0140 4c696e65 005f494f 5f626163 6b75705f  Line._IO_backup_
 0150 62617365 005f6669 6c656e6f 00736572  base._fileno.ser
 0160 726f7200 5f5f6361 6e5f6265 5f6e756c  ror.__can_be_nul
 0170 6c005f5f 73796e74 61780062 75666669  l.__syntax.buffi
 0180 6e007369 7a655f74 00637572 72656e74  n.size_t.current
 0190 5f636861 72006373 74617465 005f494f  _char.cstate._IO
 01a0 5f726561 645f6261 7365002f 686f6d65  _read_base./home
 01b0 2f6a6163 6f622f63 73343431 342f7368  /jacob/cs4414/sh
 01c0 656c6c00 6572726f 72696e00 636d645f  ell.errorin.cmd_
 01d0 74005345 545f4152 47530053 48555444  t.SET_ARGS.SHUTD
 01e0 4f574e00 5f6e6578 74005370 7048656c  OWN._next.SppHel
 01f0 70006368 61725f70 7472005f 6d6f6465  p.char_ptr._mode
 0200 0072655f 70617474 65726e5f 62756666  .re_pattern_buff
 0210 65720053 45545f48 41535354 444f5554  er.SET_HASSTDOUT
 0220 005f494f 5f6d6172 6b657200 5f494f5f  ._IO_marker._IO_
 0230 72656164 5f707472 00536574 5570416e  read_ptr.SetUpAn
 0240 64457865 63757465 00706172 73657273  dExecute.parsers
 0250 74617465 5f740070 72656765 78004745  tate_t.pregex.GE
 0260 54574f52 445f5053 005f5f62 75666665  TWORD_PS.__buffe
 0270 72004368 65636b53 796e7461 78005f5f  r.CheckSyntax.__
 0280 72656773 5f616c6c 6f636174 6564005f  regs_allocated._
 0290 494f5f77 72697465 5f626173 65007265  IO_write_base.re
 02a0 6765785f 74005275 6e457874 72616374  gex_t.RunExtract
 02b0 6f72006c 6f6e6720 6c6f6e67 20696e74  or.long long int
 02c0 005f494f 5f736176 655f6261 73650063  ._IO_save_base.c
 02d0 75727265 6e74636d 64007370 70636f6d  urrentcmd.sppcom
 02e0 6d616e64 5f737472 696e6773 00636d64  mand_strings.cmd
 02f0 6e756d00 65636f64 65005f5f 616c6c6f  num.ecode.__allo
 0300 63617465 64004745 544c494e 45005f5f  cated.GETLINE.__
 0310 70616431 005f5f70 61643200 5f5f7061  pad1.__pad2.__pa
 0320 6433005f 5f706164 34005f5f 70616435  d3.__pad4.__pad5
 0330 00636d64 73005345 545f5354 44494e46  .cmds.SET_STDINF
 0340 4e005f76 7461626c 655f6f66 66736574  N._vtable_offset
 0350 00737472 70747200 5345545f 48415353  .strptr.SET_HASS
 0360 5444494e 00617267 73006375 7272656e  TDIN.args.curren
 0370 74737461 74650049 4e495449 414c495a  tstate.INITIALIZ
 0380 45006669 6c656465 7363005f 5f747261  E.filedesc.__tra
 0390 6e736c61 74650053 70705275 6e007364  nslate.SppRun.sd
 03a0 61746100 5f5f6661 73746d61 705f6163  ata.__fastmap_ac
 03b0 63757261 74650068 61735f73 74646f75  curate.has_stdou
 03c0 745f7265 64697200 636d6473 636f756e  t_redir.cmdscoun
 03d0 74005f49 4f5f7265 61645f65 6e640073  t._IO_read_end.s
 03e0 686f7274 20696e74 00726567 5f73796e  hort int.reg_syn
 03f0 7461785f 74006572 726f725f 74006861  tax_t.error_t.ha
 0400 735f7374 64696e5f 72656469 72005370  s_stdin_redir.Sp
 0410 70436f6d 6d616e64 73006578 7472615f  pCommands.extra_
 0420 63686172 735f666c 6167005f 5f757365  chars_flag.__use
 0430 6400474e 55204339 3920352e 342e3020  d.GNU C99 5.4.0 
 0440 32303136 30363039 202d6d74 756e653d  20160609 -mtune=
 0450 67656e65 72696320 2d6d6172 63683d78  generic -march=x
 0460 38362d36 34202d67 202d7374 643d6339  86-64 -g -std=c9
 0470 39202d66 73746163 6b2d7072 6f746563  9 -fstack-protec
 0480 746f722d 7374726f 6e670070 69647300  tor-strong.pids.
 0490 73746469 6e5f7265 6469725f 666e0053  stdin_redir_fn.S
 04a0 65745265 64697273 00494e49 5449414c  etRedirs.INITIAL
 04b0 495a455f 50530063 6d64736c 65667400  IZE_PS.cmdsleft.
 04c0 73746469 6e5f6275 66666572 00446562  stdin_buffer.Deb
 04d0 75675072 696e7443 6f6d6d61 6e647300  ugPrintCommands.
 04e0 424c414e 4b005f6c 6f636b00 73697a65  BLANK._lock.size
 04f0 74797065 006c6f6e 6720756e 7369676e  type.long unsign
 0500 65642069 6e74005f 6f6c645f 6f666673  ed int._old_offs
 0510 65740073 7464696e 005f494f 5f46494c  et.stdin._IO_FIL
 0520 45007265 64697263 68617200 53707049  E.redirchar.SppI
 0530 74657261 74650075 6e736967 6e656420  terate.unsigned 
 0540 63686172 005f7362 7566005f 494f5f77  char._sbuf._IO_w
 0550 72697465 5f707472 00666174 616c005f  rite_ptr.fatal._
 0560 5f666173 746d6170 00706970 65666473  _fastmap.pipefds
 0570 00534855 54444f57 4e5f5053 00746172  .SHUTDOWN_PS.tar
 0580 67657462 75660070 73746174 75730073  getbuf.pstatus.s
 0590 666c6167 005f5f6f 66665f74 00434c45  flag.__off_t.CLE
 05a0 414e5550 0072655f 6e737562 0048414e  ANUP.re_nsub.HAN
 05b0 444c455f 4552524f 52005f5f 6e6f745f  DLE_ERROR.__not_
 05c0 626f6c00 73686f72 7420756e 7369676e  bol.short unsign
 05d0 65642069 6e740073 74646f75 745f7265  ed int.stdout_re
 05e0 6469725f 666e006d 61696e00 65666c61  dir_fn.main.efla
 05f0 67004368 65636b50 6970696e 6752756c  g.CheckPipingRul
 0600 6573005f 63686169 6e004348 45434b5f  es._chain.CHECK_
 0610 53594e54 4158005f 666c6167 73320053  SYNTAX._flags2.S
 0620 70704578 6974005f 6375725f 636f6c75  ppExit._cur_colu
 0630 6d6e005f 5f6f6666 36345f74 005f756e  mn.__off64_t._un
 0640 75736564 32005f49 4f5f6275 665f6261  used2._IO_buf_ba
 0650 736500                               se.             
Contents of section .debug_ranges:
 0000 3e020000 00000000 6d020000 00000000  >.......m.......
 0010 72020000 00000000 81020000 00000000  r...............
 0020 86020000 00000000 8d020000 00000000  ................
 0030 00000000 00000000 00000000 00000000  ................
 0040 fc080000 00000000 a3090000 00000000  ................
 0050 a6090000 00000000 a7090000 00000000  ................
 0060 00000000 00000000 00000000 00000000  ................

Disassembly of section .init:

0000000000400920 <_init>:
  400920:	48 83 ec 08          	sub    $0x8,%rsp
  400924:	48 8b 05 cd 36 20 00 	mov    0x2036cd(%rip),%rax        # 603ff8 <_DYNAMIC+0x1d0>
  40092b:	48 85 c0             	test   %rax,%rax
  40092e:	74 05                	je     400935 <_init+0x15>
  400930:	e8 9b 01 00 00       	callq  400ad0 <fork@plt+0x10>
  400935:	48 83 c4 08          	add    $0x8,%rsp
  400939:	c3                   	retq   

Disassembly of section .plt:

0000000000400940 <free@plt-0x10>:
  400940:	ff 35 c2 36 20 00    	pushq  0x2036c2(%rip)        # 604008 <_GLOBAL_OFFSET_TABLE_+0x8>
  400946:	ff 25 c4 36 20 00    	jmpq   *0x2036c4(%rip)        # 604010 <_GLOBAL_OFFSET_TABLE_+0x10>
  40094c:	0f 1f 40 00          	nopl   0x0(%rax)

0000000000400950 <free@plt>:
  400950:	ff 25 c2 36 20 00    	jmpq   *0x2036c2(%rip)        # 604018 <_GLOBAL_OFFSET_TABLE_+0x18>
  400956:	68 00 00 00 00       	pushq  $0x0
  40095b:	e9 e0 ff ff ff       	jmpq   400940 <_init+0x20>

0000000000400960 <strcpy@plt>:
  400960:	ff 25 ba 36 20 00    	jmpq   *0x2036ba(%rip)        # 604020 <_GLOBAL_OFFSET_TABLE_+0x20>
  400966:	68 01 00 00 00       	pushq  $0x1
  40096b:	e9 d0 ff ff ff       	jmpq   400940 <_init+0x20>

0000000000400970 <puts@plt>:
  400970:	ff 25 b2 36 20 00    	jmpq   *0x2036b2(%rip)        # 604028 <_GLOBAL_OFFSET_TABLE_+0x28>
  400976:	68 02 00 00 00       	pushq  $0x2
  40097b:	e9 c0 ff ff ff       	jmpq   400940 <_init+0x20>

0000000000400980 <strlen@plt>:
  400980:	ff 25 aa 36 20 00    	jmpq   *0x2036aa(%rip)        # 604030 <_GLOBAL_OFFSET_TABLE_+0x30>
  400986:	68 03 00 00 00       	pushq  $0x3
  40098b:	e9 b0 ff ff ff       	jmpq   400940 <_init+0x20>

0000000000400990 <chdir@plt>:
  400990:	ff 25 a2 36 20 00    	jmpq   *0x2036a2(%rip)        # 604038 <_GLOBAL_OFFSET_TABLE_+0x38>
  400996:	68 04 00 00 00       	pushq  $0x4
  40099b:	e9 a0 ff ff ff       	jmpq   400940 <_init+0x20>

00000000004009a0 <__stack_chk_fail@plt>:
  4009a0:	ff 25 9a 36 20 00    	jmpq   *0x20369a(%rip)        # 604040 <_GLOBAL_OFFSET_TABLE_+0x40>
  4009a6:	68 05 00 00 00       	pushq  $0x5
  4009ab:	e9 90 ff ff ff       	jmpq   400940 <_init+0x20>

00000000004009b0 <dup2@plt>:
  4009b0:	ff 25 92 36 20 00    	jmpq   *0x203692(%rip)        # 604048 <_GLOBAL_OFFSET_TABLE_+0x48>
  4009b6:	68 06 00 00 00       	pushq  $0x6
  4009bb:	e9 80 ff ff ff       	jmpq   400940 <_init+0x20>

00000000004009c0 <printf@plt>:
  4009c0:	ff 25 8a 36 20 00    	jmpq   *0x20368a(%rip)        # 604050 <_GLOBAL_OFFSET_TABLE_+0x50>
  4009c6:	68 07 00 00 00       	pushq  $0x7
  4009cb:	e9 70 ff ff ff       	jmpq   400940 <_init+0x20>

00000000004009d0 <fgetc@plt>:
  4009d0:	ff 25 82 36 20 00    	jmpq   *0x203682(%rip)        # 604058 <_GLOBAL_OFFSET_TABLE_+0x58>
  4009d6:	68 08 00 00 00       	pushq  $0x8
  4009db:	e9 60 ff ff ff       	jmpq   400940 <_init+0x20>

00000000004009e0 <close@plt>:
  4009e0:	ff 25 7a 36 20 00    	jmpq   *0x20367a(%rip)        # 604060 <_GLOBAL_OFFSET_TABLE_+0x60>
  4009e6:	68 09 00 00 00       	pushq  $0x9
  4009eb:	e9 50 ff ff ff       	jmpq   400940 <_init+0x20>

00000000004009f0 <pipe@plt>:
  4009f0:	ff 25 72 36 20 00    	jmpq   *0x203672(%rip)        # 604068 <_GLOBAL_OFFSET_TABLE_+0x68>
  4009f6:	68 0a 00 00 00       	pushq  $0xa
  4009fb:	e9 40 ff ff ff       	jmpq   400940 <_init+0x20>

0000000000400a00 <regcomp@plt>:
  400a00:	ff 25 6a 36 20 00    	jmpq   *0x20366a(%rip)        # 604070 <_GLOBAL_OFFSET_TABLE_+0x70>
  400a06:	68 0b 00 00 00       	pushq  $0xb
  400a0b:	e9 30 ff ff ff       	jmpq   400940 <_init+0x20>

0000000000400a10 <__libc_start_main@plt>:
  400a10:	ff 25 62 36 20 00    	jmpq   *0x203662(%rip)        # 604078 <_GLOBAL_OFFSET_TABLE_+0x78>
  400a16:	68 0c 00 00 00       	pushq  $0xc
  400a1b:	e9 20 ff ff ff       	jmpq   400940 <_init+0x20>

0000000000400a20 <calloc@plt>:
  400a20:	ff 25 5a 36 20 00    	jmpq   *0x20365a(%rip)        # 604080 <_GLOBAL_OFFSET_TABLE_+0x80>
  400a26:	68 0d 00 00 00       	pushq  $0xd
  400a2b:	e9 10 ff ff ff       	jmpq   400940 <_init+0x20>

0000000000400a30 <strcmp@plt>:
  400a30:	ff 25 52 36 20 00    	jmpq   *0x203652(%rip)        # 604088 <_GLOBAL_OFFSET_TABLE_+0x88>
  400a36:	68 0e 00 00 00       	pushq  $0xe
  400a3b:	e9 00 ff ff ff       	jmpq   400940 <_init+0x20>

0000000000400a40 <getchar@plt>:
  400a40:	ff 25 4a 36 20 00    	jmpq   *0x20364a(%rip)        # 604090 <_GLOBAL_OFFSET_TABLE_+0x90>
  400a46:	68 0f 00 00 00       	pushq  $0xf
  400a4b:	e9 f0 fe ff ff       	jmpq   400940 <_init+0x20>

0000000000400a50 <malloc@plt>:
  400a50:	ff 25 42 36 20 00    	jmpq   *0x203642(%rip)        # 604098 <_GLOBAL_OFFSET_TABLE_+0x98>
  400a56:	68 10 00 00 00       	pushq  $0x10
  400a5b:	e9 e0 fe ff ff       	jmpq   400940 <_init+0x20>

0000000000400a60 <regexec@plt>:
  400a60:	ff 25 3a 36 20 00    	jmpq   *0x20363a(%rip)        # 6040a0 <_GLOBAL_OFFSET_TABLE_+0xa0>
  400a66:	68 11 00 00 00       	pushq  $0x11
  400a6b:	e9 d0 fe ff ff       	jmpq   400940 <_init+0x20>

0000000000400a70 <waitpid@plt>:
  400a70:	ff 25 32 36 20 00    	jmpq   *0x203632(%rip)        # 6040a8 <_GLOBAL_OFFSET_TABLE_+0xa8>
  400a76:	68 12 00 00 00       	pushq  $0x12
  400a7b:	e9 c0 fe ff ff       	jmpq   400940 <_init+0x20>

0000000000400a80 <open@plt>:
  400a80:	ff 25 2a 36 20 00    	jmpq   *0x20362a(%rip)        # 6040b0 <_GLOBAL_OFFSET_TABLE_+0xb0>
  400a86:	68 13 00 00 00       	pushq  $0x13
  400a8b:	e9 b0 fe ff ff       	jmpq   400940 <_init+0x20>

0000000000400a90 <strtok@plt>:
  400a90:	ff 25 22 36 20 00    	jmpq   *0x203622(%rip)        # 6040b8 <_GLOBAL_OFFSET_TABLE_+0xb8>
  400a96:	68 14 00 00 00       	pushq  $0x14
  400a9b:	e9 a0 fe ff ff       	jmpq   400940 <_init+0x20>

0000000000400aa0 <execvp@plt>:
  400aa0:	ff 25 1a 36 20 00    	jmpq   *0x20361a(%rip)        # 6040c0 <_GLOBAL_OFFSET_TABLE_+0xc0>
  400aa6:	68 15 00 00 00       	pushq  $0x15
  400aab:	e9 90 fe ff ff       	jmpq   400940 <_init+0x20>

0000000000400ab0 <exit@plt>:
  400ab0:	ff 25 12 36 20 00    	jmpq   *0x203612(%rip)        # 6040c8 <_GLOBAL_OFFSET_TABLE_+0xc8>
  400ab6:	68 16 00 00 00       	pushq  $0x16
  400abb:	e9 80 fe ff ff       	jmpq   400940 <_init+0x20>

0000000000400ac0 <fork@plt>:
  400ac0:	ff 25 0a 36 20 00    	jmpq   *0x20360a(%rip)        # 6040d0 <_GLOBAL_OFFSET_TABLE_+0xd0>
  400ac6:	68 17 00 00 00       	pushq  $0x17
  400acb:	e9 70 fe ff ff       	jmpq   400940 <_init+0x20>

Disassembly of section .plt.got:

0000000000400ad0 <.plt.got>:
  400ad0:	ff 25 22 35 20 00    	jmpq   *0x203522(%rip)        # 603ff8 <_DYNAMIC+0x1d0>
  400ad6:	66 90                	xchg   %ax,%ax

Disassembly of section .text:

0000000000400ae0 <_start>:
  400ae0:	31 ed                	xor    %ebp,%ebp
  400ae2:	49 89 d1             	mov    %rdx,%r9
  400ae5:	5e                   	pop    %rsi
  400ae6:	48 89 e2             	mov    %rsp,%rdx
  400ae9:	48 83 e4 f0          	and    $0xfffffffffffffff0,%rsp
  400aed:	50                   	push   %rax
  400aee:	54                   	push   %rsp
  400aef:	49 c7 c0 60 2c 40 00 	mov    $0x402c60,%r8
  400af6:	48 c7 c1 f0 2b 40 00 	mov    $0x402bf0,%rcx
  400afd:	48 c7 c7 d6 0b 40 00 	mov    $0x400bd6,%rdi
  400b04:	e8 07 ff ff ff       	callq  400a10 <__libc_start_main@plt>
  400b09:	f4                   	hlt    
  400b0a:	66 0f 1f 44 00 00    	nopw   0x0(%rax,%rax,1)

0000000000400b10 <deregister_tm_clones>:
  400b10:	b8 2f 41 60 00       	mov    $0x60412f,%eax
  400b15:	55                   	push   %rbp
  400b16:	48 2d 28 41 60 00    	sub    $0x604128,%rax
  400b1c:	48 83 f8 0e          	cmp    $0xe,%rax
  400b20:	48 89 e5             	mov    %rsp,%rbp
  400b23:	76 1b                	jbe    400b40 <deregister_tm_clones+0x30>
  400b25:	b8 00 00 00 00       	mov    $0x0,%eax
  400b2a:	48 85 c0             	test   %rax,%rax
  400b2d:	74 11                	je     400b40 <deregister_tm_clones+0x30>
  400b2f:	5d                   	pop    %rbp
  400b30:	bf 28 41 60 00       	mov    $0x604128,%edi
  400b35:	ff e0                	jmpq   *%rax
  400b37:	66 0f 1f 84 00 00 00 	nopw   0x0(%rax,%rax,1)
  400b3e:	00 00 
  400b40:	5d                   	pop    %rbp
  400b41:	c3                   	retq   
  400b42:	0f 1f 40 00          	nopl   0x0(%rax)
  400b46:	66 2e 0f 1f 84 00 00 	nopw   %cs:0x0(%rax,%rax,1)
  400b4d:	00 00 00 

0000000000400b50 <register_tm_clones>:
  400b50:	be 28 41 60 00       	mov    $0x604128,%esi
  400b55:	55                   	push   %rbp
  400b56:	48 81 ee 28 41 60 00 	sub    $0x604128,%rsi
  400b5d:	48 c1 fe 03          	sar    $0x3,%rsi
  400b61:	48 89 e5             	mov    %rsp,%rbp
  400b64:	48 89 f0             	mov    %rsi,%rax
  400b67:	48 c1 e8 3f          	shr    $0x3f,%rax
  400b6b:	48 01 c6             	add    %rax,%rsi
  400b6e:	48 d1 fe             	sar    %rsi
  400b71:	74 15                	je     400b88 <register_tm_clones+0x38>
  400b73:	b8 00 00 00 00       	mov    $0x0,%eax
  400b78:	48 85 c0             	test   %rax,%rax
  400b7b:	74 0b                	je     400b88 <register_tm_clones+0x38>
  400b7d:	5d                   	pop    %rbp
  400b7e:	bf 28 41 60 00       	mov    $0x604128,%edi
  400b83:	ff e0                	jmpq   *%rax
  400b85:	0f 1f 00             	nopl   (%rax)
  400b88:	5d                   	pop    %rbp
  400b89:	c3                   	retq   
  400b8a:	66 0f 1f 44 00 00    	nopw   0x0(%rax,%rax,1)

0000000000400b90 <__do_global_dtors_aux>:
  400b90:	80 3d b1 35 20 00 00 	cmpb   $0x0,0x2035b1(%rip)        # 604148 <completed.7585>
  400b97:	75 11                	jne    400baa <__do_global_dtors_aux+0x1a>
  400b99:	55                   	push   %rbp
  400b9a:	48 89 e5             	mov    %rsp,%rbp
  400b9d:	e8 6e ff ff ff       	callq  400b10 <deregister_tm_clones>
  400ba2:	5d                   	pop    %rbp
  400ba3:	c6 05 9e 35 20 00 01 	movb   $0x1,0x20359e(%rip)        # 604148 <completed.7585>
  400baa:	f3 c3                	repz retq 
  400bac:	0f 1f 40 00          	nopl   0x0(%rax)

0000000000400bb0 <frame_dummy>:
  400bb0:	bf 20 3e 60 00       	mov    $0x603e20,%edi
  400bb5:	48 83 3f 00          	cmpq   $0x0,(%rdi)
  400bb9:	75 05                	jne    400bc0 <frame_dummy+0x10>
  400bbb:	eb 93                	jmp    400b50 <register_tm_clones>
  400bbd:	0f 1f 00             	nopl   (%rax)
  400bc0:	b8 00 00 00 00       	mov    $0x0,%eax
  400bc5:	48 85 c0             	test   %rax,%rax
  400bc8:	74 f1                	je     400bbb <frame_dummy+0xb>
  400bca:	55                   	push   %rbp
  400bcb:	48 89 e5             	mov    %rsp,%rbp
  400bce:	ff d0                	callq  *%rax
  400bd0:	5d                   	pop    %rbp
  400bd1:	e9 7a ff ff ff       	jmpq   400b50 <register_tm_clones>

0000000000400bd6 <main>:
  400bd6:	55                   	push   %rbp
  400bd7:	48 89 e5             	mov    %rsp,%rbp
  400bda:	bf 88 2c 40 00       	mov    $0x402c88,%edi
  400bdf:	e8 8c fd ff ff       	callq  400970 <puts@plt>
  400be4:	b8 00 00 00 00       	mov    $0x0,%eax
  400be9:	e8 07 00 00 00       	callq  400bf5 <SppRun>
  400bee:	b8 00 00 00 00       	mov    $0x0,%eax
  400bf3:	5d                   	pop    %rbp
  400bf4:	c3                   	retq   

0000000000400bf5 <SppRun>:
  400bf5:	55                   	push   %rbp
  400bf6:	48 89 e5             	mov    %rsp,%rbp
  400bf9:	48 81 ec 90 00 00 00 	sub    $0x90,%rsp
  400c00:	64 48 8b 04 25 28 00 	mov    %fs:0x28,%rax
  400c07:	00 00 
  400c09:	48 89 45 f8          	mov    %rax,-0x8(%rbp)
  400c0d:	31 c0                	xor    %eax,%eax
  400c0f:	c7 85 7c ff ff ff 00 	movl   $0x0,-0x84(%rbp)
  400c16:	00 00 00 
  400c19:	48 c7 45 80 00 00 00 	movq   $0x0,-0x80(%rbp)
  400c20:	00 
  400c21:	48 c7 45 88 00 00 00 	movq   $0x0,-0x78(%rbp)
  400c28:	00 
  400c29:	48 c7 45 90 00 00 00 	movq   $0x0,-0x70(%rbp)
  400c30:	00 
  400c31:	c7 45 a0 00 00 00 00 	movl   $0x0,-0x60(%rbp)
  400c38:	c7 45 a4 00 00 00 00 	movl   $0x0,-0x5c(%rbp)
  400c3f:	48 c7 45 a8 4f 4b 00 	movq   $0x4b4f,-0x58(%rbp)
  400c46:	00 
  400c47:	48 8d 55 b0          	lea    -0x50(%rbp),%rdx
  400c4b:	b8 00 00 00 00       	mov    $0x0,%eax
  400c50:	b9 07 00 00 00       	mov    $0x7,%ecx
  400c55:	48 89 d7             	mov    %rdx,%rdi
  400c58:	f3 48 ab             	rep stos %rax,%es:(%rdi)
  400c5b:	c7 45 e8 00 00 00 00 	movl   $0x0,-0x18(%rbp)
  400c62:	c7 45 ec 00 00 00 00 	movl   $0x0,-0x14(%rbp)
  400c69:	48 8d 55 a0          	lea    -0x60(%rbp),%rdx
  400c6d:	48 8d 4d 80          	lea    -0x80(%rbp),%rcx
  400c71:	8b 85 7c ff ff ff    	mov    -0x84(%rbp),%eax
  400c77:	48 89 ce             	mov    %rcx,%rsi
  400c7a:	89 c7                	mov    %eax,%edi
  400c7c:	e8 3c 00 00 00       	callq  400cbd <SppIterate>
  400c81:	89 85 7c ff ff ff    	mov    %eax,-0x84(%rbp)
  400c87:	83 bd 7c ff ff ff 07 	cmpl   $0x7,-0x84(%rbp)
  400c8e:	75 d9                	jne    400c69 <SppRun+0x74>
  400c90:	48 8d 55 a0          	lea    -0x60(%rbp),%rdx
  400c94:	48 8d 45 80          	lea    -0x80(%rbp),%rax
  400c98:	48 89 c6             	mov    %rax,%rsi
  400c9b:	bf 07 00 00 00       	mov    $0x7,%edi
  400ca0:	e8 18 00 00 00       	callq  400cbd <SppIterate>
  400ca5:	90                   	nop
  400ca6:	90                   	nop
  400ca7:	48 8b 45 f8          	mov    -0x8(%rbp),%rax
  400cab:	64 48 33 04 25 28 00 	xor    %fs:0x28,%rax
  400cb2:	00 00 
  400cb4:	74 05                	je     400cbb <SppRun+0xc6>
  400cb6:	e8 e5 fc ff ff       	callq  4009a0 <__stack_chk_fail@plt>
  400cbb:	c9                   	leaveq 
  400cbc:	c3                   	retq   

0000000000400cbd <SppIterate>:
  400cbd:	55                   	push   %rbp
  400cbe:	48 89 e5             	mov    %rsp,%rbp
  400cc1:	53                   	push   %rbx
  400cc2:	48 83 ec 68          	sub    $0x68,%rsp
  400cc6:	89 7d ac             	mov    %edi,-0x54(%rbp)
  400cc9:	48 89 75 a0          	mov    %rsi,-0x60(%rbp)
  400ccd:	48 89 55 98          	mov    %rdx,-0x68(%rbp)
  400cd1:	64 48 8b 04 25 28 00 	mov    %fs:0x28,%rax
  400cd8:	00 00 
  400cda:	48 89 45 e8          	mov    %rax,-0x18(%rbp)
  400cde:	31 c0                	xor    %eax,%eax
  400ce0:	c7 45 c0 07 00 00 00 	movl   $0x7,-0x40(%rbp)
  400ce7:	48 8b 45 98          	mov    -0x68(%rbp),%rax
  400ceb:	8b 00                	mov    (%rax),%eax
  400ced:	85 c0                	test   %eax,%eax
  400cef:	74 07                	je     400cf8 <SppIterate+0x3b>
  400cf1:	c7 45 ac 05 00 00 00 	movl   $0x5,-0x54(%rbp)
  400cf8:	83 7d ac 07          	cmpl   $0x7,-0x54(%rbp)
  400cfc:	0f 87 38 07 00 00    	ja     40143a <SppIterate+0x77d>
  400d02:	8b 45 ac             	mov    -0x54(%rbp),%eax
  400d05:	48 8b 04 c5 c0 2c 40 	mov    0x402cc0(,%rax,8),%rax
  400d0c:	00 
  400d0d:	ff e0                	jmpq   *%rax
  400d0f:	bf 51 00 00 00       	mov    $0x51,%edi
  400d14:	e8 37 fd ff ff       	callq  400a50 <malloc@plt>
  400d19:	48 89 c2             	mov    %rax,%rdx
  400d1c:	48 8b 45 a0          	mov    -0x60(%rbp),%rax
  400d20:	48 89 10             	mov    %rdx,(%rax)
  400d23:	48 8b 45 a0          	mov    -0x60(%rbp),%rax
  400d27:	48 8b 00             	mov    (%rax),%rax
  400d2a:	48 83 c0 50          	add    $0x50,%rax
  400d2e:	c6 00 00             	movb   $0x0,(%rax)
  400d31:	c7 45 c0 01 00 00 00 	movl   $0x1,-0x40(%rbp)
  400d38:	e9 fd 06 00 00       	jmpq   40143a <SppIterate+0x77d>
  400d3d:	48 8b 45 98          	mov    -0x68(%rbp),%rax
  400d41:	48 89 c7             	mov    %rax,%rdi
  400d44:	e8 e3 0b 00 00       	callq  40192c <HandleError>
  400d49:	48 8b 45 98          	mov    -0x68(%rbp),%rax
  400d4d:	8b 40 4c             	mov    0x4c(%rax),%eax
  400d50:	85 c0                	test   %eax,%eax
  400d52:	74 09                	je     400d5d <SppIterate+0xa0>
  400d54:	c7 45 c0 07 00 00 00 	movl   $0x7,-0x40(%rbp)
  400d5b:	eb 07                	jmp    400d64 <SppIterate+0xa7>
  400d5d:	c7 45 c0 01 00 00 00 	movl   $0x1,-0x40(%rbp)
  400d64:	48 8b 45 98          	mov    -0x68(%rbp),%rax
  400d68:	c7 00 00 00 00 00    	movl   $0x0,(%rax)
  400d6e:	48 8b 45 98          	mov    -0x68(%rbp),%rax
  400d72:	c7 40 04 00 00 00 00 	movl   $0x0,0x4(%rax)
  400d79:	48 8b 45 98          	mov    -0x68(%rbp),%rax
  400d7d:	48 c7 40 08 4f 4b 00 	movq   $0x4b4f,0x8(%rax)
  400d84:	00 
  400d85:	48 83 c0 10          	add    $0x10,%rax
  400d89:	b9 38 00 00 00       	mov    $0x38,%ecx
  400d8e:	be 00 00 00 00       	mov    $0x0,%esi
  400d93:	48 89 30             	mov    %rsi,(%rax)
  400d96:	89 ca                	mov    %ecx,%edx
  400d98:	48 01 c2             	add    %rax,%rdx
  400d9b:	48 83 c2 08          	add    $0x8,%rdx
  400d9f:	48 89 72 f0          	mov    %rsi,-0x10(%rdx)
  400da3:	48 8d 50 08          	lea    0x8(%rax),%rdx
  400da7:	48 83 e2 f8          	and    $0xfffffffffffffff8,%rdx
  400dab:	48 29 d0             	sub    %rdx,%rax
  400dae:	01 c1                	add    %eax,%ecx
  400db0:	83 e1 f8             	and    $0xfffffff8,%ecx
  400db3:	89 c8                	mov    %ecx,%eax
  400db5:	c1 e8 03             	shr    $0x3,%eax
  400db8:	89 c1                	mov    %eax,%ecx
  400dba:	48 89 d7             	mov    %rdx,%rdi
  400dbd:	48 89 f0             	mov    %rsi,%rax
  400dc0:	f3 48 ab             	rep stos %rax,%es:(%rdi)
  400dc3:	48 8b 45 98          	mov    -0x68(%rbp),%rax
  400dc7:	c7 40 48 00 00 00 00 	movl   $0x0,0x48(%rax)
  400dce:	48 8b 45 98          	mov    -0x68(%rbp),%rax
  400dd2:	c7 40 4c 00 00 00 00 	movl   $0x0,0x4c(%rax)
  400dd9:	e9 5c 06 00 00       	jmpq   40143a <SppIterate+0x77d>
  400dde:	be b2 2c 40 00       	mov    $0x402cb2,%esi
  400de3:	bf b8 2c 40 00       	mov    $0x402cb8,%edi
  400de8:	b8 00 00 00 00       	mov    $0x0,%eax
  400ded:	e8 ce fb ff ff       	callq  4009c0 <printf@plt>
  400df2:	48 8b 45 a0          	mov    -0x60(%rbp),%rax
  400df6:	48 8b 00             	mov    (%rax),%rax
  400df9:	48 8b 55 98          	mov    -0x68(%rbp),%rdx
  400dfd:	48 89 d6             	mov    %rdx,%rsi
  400e00:	48 89 c7             	mov    %rax,%rdi
  400e03:	e8 50 06 00 00       	callq  401458 <GrabLine>
  400e08:	c7 45 c0 02 00 00 00 	movl   $0x2,-0x40(%rbp)
  400e0f:	e9 26 06 00 00       	jmpq   40143a <SppIterate+0x77d>
  400e14:	c7 45 bc 00 00 00 00 	movl   $0x0,-0x44(%rbp)
  400e1b:	48 8b 45 a0          	mov    -0x60(%rbp),%rax
  400e1f:	48 8b 00             	mov    (%rax),%rax
  400e22:	48 8b 55 98          	mov    -0x68(%rbp),%rdx
  400e26:	48 8d 4d bc          	lea    -0x44(%rbp),%rcx
  400e2a:	48 89 ce             	mov    %rcx,%rsi
  400e2d:	48 89 c7             	mov    %rax,%rdi
  400e30:	e8 4a 07 00 00       	callq  40157f <CheckSyntax>
  400e35:	8b 45 bc             	mov    -0x44(%rbp),%eax
  400e38:	85 c0                	test   %eax,%eax
  400e3a:	75 0c                	jne    400e48 <SppIterate+0x18b>
  400e3c:	c7 45 c0 03 00 00 00 	movl   $0x3,-0x40(%rbp)
  400e43:	e9 f2 05 00 00       	jmpq   40143a <SppIterate+0x77d>
  400e48:	8b 45 bc             	mov    -0x44(%rbp),%eax
  400e4b:	83 f8 01             	cmp    $0x1,%eax
  400e4e:	75 0c                	jne    400e5c <SppIterate+0x19f>
  400e50:	c7 45 c0 01 00 00 00 	movl   $0x1,-0x40(%rbp)
  400e57:	e9 de 05 00 00       	jmpq   40143a <SppIterate+0x77d>
  400e5c:	c7 45 c0 05 00 00 00 	movl   $0x5,-0x40(%rbp)
  400e63:	e9 d2 05 00 00       	jmpq   40143a <SppIterate+0x77d>
  400e68:	48 8b 45 a0          	mov    -0x60(%rbp),%rax
  400e6c:	48 8b 00             	mov    (%rax),%rax
  400e6f:	be 78 2c 40 00       	mov    $0x402c78,%esi
  400e74:	48 89 c7             	mov    %rax,%rdi
  400e77:	e8 b4 fb ff ff       	callq  400a30 <strcmp@plt>
  400e7c:	85 c0                	test   %eax,%eax
  400e7e:	75 0c                	jne    400e8c <SppIterate+0x1cf>
  400e80:	c7 45 c0 07 00 00 00 	movl   $0x7,-0x40(%rbp)
  400e87:	e9 ae 05 00 00       	jmpq   40143a <SppIterate+0x77d>
  400e8c:	c7 45 c4 00 00 00 00 	movl   $0x0,-0x3c(%rbp)
  400e93:	c7 45 c8 00 00 00 00 	movl   $0x0,-0x38(%rbp)
  400e9a:	be 30 00 00 00       	mov    $0x30,%esi
  400e9f:	bf 0b 00 00 00       	mov    $0xb,%edi
  400ea4:	e8 77 fb ff ff       	callq  400a20 <calloc@plt>
  400ea9:	48 89 c2             	mov    %rax,%rdx
  400eac:	48 8b 45 a0          	mov    -0x60(%rbp),%rax
  400eb0:	48 89 50 08          	mov    %rdx,0x8(%rax)
  400eb4:	c7 45 c8 00 00 00 00 	movl   $0x0,-0x38(%rbp)
  400ebb:	e9 c1 00 00 00       	jmpq   400f81 <SppIterate+0x2c4>
  400ec0:	48 8b 45 a0          	mov    -0x60(%rbp),%rax
  400ec4:	48 8b 48 08          	mov    0x8(%rax),%rcx
  400ec8:	8b 45 c8             	mov    -0x38(%rbp),%eax
  400ecb:	48 63 d0             	movslq %eax,%rdx
  400ece:	48 89 d0             	mov    %rdx,%rax
  400ed1:	48 01 c0             	add    %rax,%rax
  400ed4:	48 01 d0             	add    %rdx,%rax
  400ed7:	48 c1 e0 04          	shl    $0x4,%rax
  400edb:	48 8d 1c 01          	lea    (%rcx,%rax,1),%rbx
  400edf:	be 01 00 00 00       	mov    $0x1,%esi
  400ee4:	bf 51 00 00 00       	mov    $0x51,%edi
  400ee9:	e8 32 fb ff ff       	callq  400a20 <calloc@plt>
  400eee:	48 89 43 28          	mov    %rax,0x28(%rbx)
  400ef2:	48 8b 45 a0          	mov    -0x60(%rbp),%rax
  400ef6:	48 8b 48 08          	mov    0x8(%rax),%rcx
  400efa:	8b 45 c8             	mov    -0x38(%rbp),%eax
  400efd:	48 63 d0             	movslq %eax,%rdx
  400f00:	48 89 d0             	mov    %rdx,%rax
  400f03:	48 01 c0             	add    %rax,%rax
  400f06:	48 01 d0             	add    %rdx,%rax
  400f09:	48 c1 e0 04          	shl    $0x4,%rax
  400f0d:	48 8d 1c 01          	lea    (%rcx,%rax,1),%rbx
  400f11:	be 01 00 00 00       	mov    $0x1,%esi
  400f16:	bf 51 00 00 00       	mov    $0x51,%edi
  400f1b:	e8 00 fb ff ff       	callq  400a20 <calloc@plt>
  400f20:	48 89 43 20          	mov    %rax,0x20(%rbx)
  400f24:	48 8b 45 a0          	mov    -0x60(%rbp),%rax
  400f28:	48 8b 48 08          	mov    0x8(%rax),%rcx
  400f2c:	8b 45 c8             	mov    -0x38(%rbp),%eax
  400f2f:	48 63 d0             	movslq %eax,%rdx
  400f32:	48 89 d0             	mov    %rdx,%rax
  400f35:	48 01 c0             	add    %rax,%rax
  400f38:	48 01 d0             	add    %rdx,%rax
  400f3b:	48 c1 e0 04          	shl    $0x4,%rax
  400f3f:	48 8d 1c 01          	lea    (%rcx,%rax,1),%rbx
  400f43:	bf 51 00 00 00       	mov    $0x51,%edi
  400f48:	e8 03 fb ff ff       	callq  400a50 <malloc@plt>
  400f4d:	48 89 03             	mov    %rax,(%rbx)
  400f50:	48 8b 45 a0          	mov    -0x60(%rbp),%rax
  400f54:	48 8b 48 08          	mov    0x8(%rax),%rcx
  400f58:	8b 45 c8             	mov    -0x38(%rbp),%eax
  400f5b:	48 63 d0             	movslq %eax,%rdx
  400f5e:	48 89 d0             	mov    %rdx,%rax
  400f61:	48 01 c0             	add    %rax,%rax
  400f64:	48 01 d0             	add    %rdx,%rax
  400f67:	48 c1 e0 04          	shl    $0x4,%rax
  400f6b:	48 8d 1c 01          	lea    (%rcx,%rax,1),%rbx
  400f6f:	bf 41 00 00 00       	mov    $0x41,%edi
  400f74:	e8 d7 fa ff ff       	callq  400a50 <malloc@plt>
  400f79:	48 89 43 08          	mov    %rax,0x8(%rbx)
  400f7d:	83 45 c8 01          	addl   $0x1,-0x38(%rbp)
  400f81:	83 7d c8 09          	cmpl   $0x9,-0x38(%rbp)
  400f85:	0f 8e 35 ff ff ff    	jle    400ec0 <SppIterate+0x203>
  400f8b:	48 8b 45 a0          	mov    -0x60(%rbp),%rax
  400f8f:	48 8b 00             	mov    (%rax),%rax
  400f92:	be bb 2c 40 00       	mov    $0x402cbb,%esi
  400f97:	48 89 c7             	mov    %rax,%rdi
  400f9a:	e8 f1 fa ff ff       	callq  400a90 <strtok@plt>
  400f9f:	48 89 45 e0          	mov    %rax,-0x20(%rbp)
  400fa3:	c7 45 c4 00 00 00 00 	movl   $0x0,-0x3c(%rbp)
  400faa:	eb 47                	jmp    400ff3 <SppIterate+0x336>
  400fac:	48 8b 45 a0          	mov    -0x60(%rbp),%rax
  400fb0:	48 8b 48 08          	mov    0x8(%rax),%rcx
  400fb4:	8b 45 c4             	mov    -0x3c(%rbp),%eax
  400fb7:	48 63 d0             	movslq %eax,%rdx
  400fba:	48 89 d0             	mov    %rdx,%rax
  400fbd:	48 01 c0             	add    %rax,%rax
  400fc0:	48 01 d0             	add    %rdx,%rax
  400fc3:	48 c1 e0 04          	shl    $0x4,%rax
  400fc7:	48 01 c8             	add    %rcx,%rax
  400fca:	48 8b 00             	mov    (%rax),%rax
  400fcd:	48 8b 55 e0          	mov    -0x20(%rbp),%rdx
  400fd1:	48 89 d6             	mov    %rdx,%rsi
  400fd4:	48 89 c7             	mov    %rax,%rdi
  400fd7:	e8 84 f9 ff ff       	callq  400960 <strcpy@plt>
  400fdc:	83 45 c4 01          	addl   $0x1,-0x3c(%rbp)
  400fe0:	be bb 2c 40 00       	mov    $0x402cbb,%esi
  400fe5:	bf 00 00 00 00       	mov    $0x0,%edi
  400fea:	e8 a1 fa ff ff       	callq  400a90 <strtok@plt>
  400fef:	48 89 45 e0          	mov    %rax,-0x20(%rbp)
  400ff3:	48 83 7d e0 00       	cmpq   $0x0,-0x20(%rbp)
  400ff8:	75 b2                	jne    400fac <SppIterate+0x2ef>
  400ffa:	48 8b 45 a0          	mov    -0x60(%rbp),%rax
  400ffe:	8b 55 c4             	mov    -0x3c(%rbp),%edx
  401001:	89 50 10             	mov    %edx,0x10(%rax)
  401004:	48 8b 55 98          	mov    -0x68(%rbp),%rdx
  401008:	48 8b 45 a0          	mov    -0x60(%rbp),%rax
  40100c:	48 89 d6             	mov    %rdx,%rsi
  40100f:	48 89 c7             	mov    %rax,%rdi
  401012:	e8 65 09 00 00       	callq  40197c <ExtractCmds>
  401017:	48 8b 45 a0          	mov    -0x60(%rbp),%rax
  40101b:	48 89 c7             	mov    %rax,%rdi
  40101e:	e8 9f 0c 00 00       	callq  401cc2 <DebugPrintCommands>
  401023:	48 8b 55 98          	mov    -0x68(%rbp),%rdx
  401027:	48 8b 45 a0          	mov    -0x60(%rbp),%rax
  40102b:	48 89 d6             	mov    %rdx,%rsi
  40102e:	48 89 c7             	mov    %rax,%rdi
  401031:	e8 ca 16 00 00       	callq  402700 <CheckPipingRules>
  401036:	c7 45 c0 04 00 00 00 	movl   $0x4,-0x40(%rbp)
  40103d:	e9 f8 03 00 00       	jmpq   40143a <SppIterate+0x77d>
  401042:	c7 45 cc 00 00 00 00 	movl   $0x0,-0x34(%rbp)
  401049:	e9 bb 00 00 00       	jmpq   401109 <SppIterate+0x44c>
  40104e:	c7 45 d0 00 00 00 00 	movl   $0x0,-0x30(%rbp)
  401055:	eb 3e                	jmp    401095 <SppIterate+0x3d8>
  401057:	48 8b 45 a0          	mov    -0x60(%rbp),%rax
  40105b:	48 8b 48 08          	mov    0x8(%rax),%rcx
  40105f:	8b 45 cc             	mov    -0x34(%rbp),%eax
  401062:	48 63 d0             	movslq %eax,%rdx
  401065:	48 89 d0             	mov    %rdx,%rax
  401068:	48 01 c0             	add    %rax,%rax
  40106b:	48 01 d0             	add    %rdx,%rax
  40106e:	48 c1 e0 04          	shl    $0x4,%rax
  401072:	48 01 c8             	add    %rcx,%rax
  401075:	48 8b 40 08          	mov    0x8(%rax),%rax
  401079:	8b 55 d0             	mov    -0x30(%rbp),%edx
  40107c:	48 63 d2             	movslq %edx,%rdx
  40107f:	48 c1 e2 03          	shl    $0x3,%rdx
  401083:	48 01 d0             	add    %rdx,%rax
  401086:	48 8b 00             	mov    (%rax),%rax
  401089:	48 89 c7             	mov    %rax,%rdi
  40108c:	e8 bf f8 ff ff       	callq  400950 <free@plt>
  401091:	83 45 d0 01          	addl   $0x1,-0x30(%rbp)
  401095:	48 8b 45 a0          	mov    -0x60(%rbp),%rax
  401099:	48 8b 48 08          	mov    0x8(%rax),%rcx
  40109d:	8b 45 cc             	mov    -0x34(%rbp),%eax
  4010a0:	48 63 d0             	movslq %eax,%rdx
  4010a3:	48 89 d0             	mov    %rdx,%rax
  4010a6:	48 01 c0             	add    %rax,%rax
  4010a9:	48 01 d0             	add    %rdx,%rax
  4010ac:	48 c1 e0 04          	shl    $0x4,%rax
  4010b0:	48 01 c8             	add    %rcx,%rax
  4010b3:	8b 40 10             	mov    0x10(%rax),%eax
  4010b6:	3b 45 d0             	cmp    -0x30(%rbp),%eax
  4010b9:	7f 9c                	jg     401057 <SppIterate+0x39a>
  4010bb:	48 8b 45 a0          	mov    -0x60(%rbp),%rax
  4010bf:	48 8b 48 08          	mov    0x8(%rax),%rcx
  4010c3:	8b 45 cc             	mov    -0x34(%rbp),%eax
  4010c6:	48 63 d0             	movslq %eax,%rdx
  4010c9:	48 89 d0             	mov    %rdx,%rax
  4010cc:	48 01 c0             	add    %rax,%rax
  4010cf:	48 01 d0             	add    %rdx,%rax
  4010d2:	48 c1 e0 04          	shl    $0x4,%rax
  4010d6:	48 01 c8             	add    %rcx,%rax
  4010d9:	c7 40 14 00 00 00 00 	movl   $0x0,0x14(%rax)
  4010e0:	48 8b 45 a0          	mov    -0x60(%rbp),%rax
  4010e4:	48 8b 48 08          	mov    0x8(%rax),%rcx
  4010e8:	8b 45 cc             	mov    -0x34(%rbp),%eax
  4010eb:	48 63 d0             	movslq %eax,%rdx
  4010ee:	48 89 d0             	mov    %rdx,%rax
  4010f1:	48 01 c0             	add    %rax,%rax
  4010f4:	48 01 d0             	add    %rdx,%rax
  4010f7:	48 c1 e0 04          	shl    $0x4,%rax
  4010fb:	48 01 c8             	add    %rcx,%rax
  4010fe:	c7 40 18 00 00 00 00 	movl   $0x0,0x18(%rax)
  401105:	83 45 cc 01          	addl   $0x1,-0x34(%rbp)
  401109:	48 8b 45 a0          	mov    -0x60(%rbp),%rax
  40110d:	8b 40 10             	mov    0x10(%rax),%eax
  401110:	3b 45 cc             	cmp    -0x34(%rbp),%eax
  401113:	0f 8f 35 ff ff ff    	jg     40104e <SppIterate+0x391>
  401119:	c7 45 cc 00 00 00 00 	movl   $0x0,-0x34(%rbp)
  401120:	c7 45 cc 00 00 00 00 	movl   $0x0,-0x34(%rbp)
  401127:	e9 ab 00 00 00       	jmpq   4011d7 <SppIterate+0x51a>
  40112c:	48 8b 45 a0          	mov    -0x60(%rbp),%rax
  401130:	48 8b 48 08          	mov    0x8(%rax),%rcx
  401134:	8b 45 cc             	mov    -0x34(%rbp),%eax
  401137:	48 63 d0             	movslq %eax,%rdx
  40113a:	48 89 d0             	mov    %rdx,%rax
  40113d:	48 01 c0             	add    %rax,%rax
  401140:	48 01 d0             	add    %rdx,%rax
  401143:	48 c1 e0 04          	shl    $0x4,%rax
  401147:	48 01 c8             	add    %rcx,%rax
  40114a:	48 8b 40 28          	mov    0x28(%rax),%rax
  40114e:	48 89 c7             	mov    %rax,%rdi
  401151:	e8 fa f7 ff ff       	callq  400950 <free@plt>
  401156:	48 8b 45 a0          	mov    -0x60(%rbp),%rax
  40115a:	48 8b 48 08          	mov    0x8(%rax),%rcx
  40115e:	8b 45 cc             	mov    -0x34(%rbp),%eax
  401161:	48 63 d0             	movslq %eax,%rdx
  401164:	48 89 d0             	mov    %rdx,%rax
  401167:	48 01 c0             	add    %rax,%rax
  40116a:	48 01 d0             	add    %rdx,%rax
  40116d:	48 c1 e0 04          	shl    $0x4,%rax
  401171:	48 01 c8             	add    %rcx,%rax
  401174:	48 8b 40 20          	mov    0x20(%rax),%rax
  401178:	48 89 c7             	mov    %rax,%rdi
  40117b:	e8 d0 f7 ff ff       	callq  400950 <free@plt>
  401180:	48 8b 45 a0          	mov    -0x60(%rbp),%rax
  401184:	48 8b 48 08          	mov    0x8(%rax),%rcx
  401188:	8b 45 cc             	mov    -0x34(%rbp),%eax
  40118b:	48 63 d0             	movslq %eax,%rdx
  40118e:	48 89 d0             	mov    %rdx,%rax
  401191:	48 01 c0             	add    %rax,%rax
  401194:	48 01 d0             	add    %rdx,%rax
  401197:	48 c1 e0 04          	shl    $0x4,%rax
  40119b:	48 01 c8             	add    %rcx,%rax
  40119e:	48 8b 00             	mov    (%rax),%rax
  4011a1:	48 89 c7             	mov    %rax,%rdi
  4011a4:	e8 a7 f7 ff ff       	callq  400950 <free@plt>
  4011a9:	48 8b 45 a0          	mov    -0x60(%rbp),%rax
  4011ad:	48 8b 48 08          	mov    0x8(%rax),%rcx
  4011b1:	8b 45 cc             	mov    -0x34(%rbp),%eax
  4011b4:	48 63 d0             	movslq %eax,%rdx
  4011b7:	48 89 d0             	mov    %rdx,%rax
  4011ba:	48 01 c0             	add    %rax,%rax
  4011bd:	48 01 d0             	add    %rdx,%rax
  4011c0:	48 c1 e0 04          	shl    $0x4,%rax
  4011c4:	48 01 c8             	add    %rcx,%rax
  4011c7:	48 8b 40 08          	mov    0x8(%rax),%rax
  4011cb:	48 89 c7             	mov    %rax,%rdi
  4011ce:	e8 7d f7 ff ff       	callq  400950 <free@plt>
  4011d3:	83 45 cc 01          	addl   $0x1,-0x34(%rbp)
  4011d7:	83 7d cc 0a          	cmpl   $0xa,-0x34(%rbp)
  4011db:	0f 8e 4b ff ff ff    	jle    40112c <SppIterate+0x46f>
  4011e1:	48 8b 45 a0          	mov    -0x60(%rbp),%rax
  4011e5:	c7 40 10 00 00 00 00 	movl   $0x0,0x10(%rax)
  4011ec:	48 8b 45 a0          	mov    -0x60(%rbp),%rax
  4011f0:	48 8b 40 08          	mov    0x8(%rax),%rax
  4011f4:	48 89 c7             	mov    %rax,%rdi
  4011f7:	e8 54 f7 ff ff       	callq  400950 <free@plt>
  4011fc:	c7 45 c0 01 00 00 00 	movl   $0x1,-0x40(%rbp)
  401203:	e9 32 02 00 00       	jmpq   40143a <SppIterate+0x77d>
  401208:	c7 45 d4 00 00 00 00 	movl   $0x0,-0x2c(%rbp)
  40120f:	eb 51                	jmp    401262 <SppIterate+0x5a5>
  401211:	8b 45 d4             	mov    -0x2c(%rbp),%eax
  401214:	48 98                	cltq   
  401216:	48 8b 14 c5 f0 40 60 	mov    0x6040f0(,%rax,8),%rdx
  40121d:	00 
  40121e:	48 8b 45 a0          	mov    -0x60(%rbp),%rax
  401222:	48 8b 40 08          	mov    0x8(%rax),%rax
  401226:	48 8b 40 08          	mov    0x8(%rax),%rax
  40122a:	48 8b 00             	mov    (%rax),%rax
  40122d:	48 89 d6             	mov    %rdx,%rsi
  401230:	48 89 c7             	mov    %rax,%rdi
  401233:	e8 f8 f7 ff ff       	callq  400a30 <strcmp@plt>
  401238:	89 45 d8             	mov    %eax,-0x28(%rbp)
  40123b:	83 7d d8 00          	cmpl   $0x0,-0x28(%rbp)
  40123f:	75 1d                	jne    40125e <SppIterate+0x5a1>
  401241:	8b 45 d4             	mov    -0x2c(%rbp),%eax
  401244:	48 98                	cltq   
  401246:	48 8b 04 c5 10 41 60 	mov    0x604110(,%rax,8),%rax
  40124d:	00 
  40124e:	48 8b 4d 98          	mov    -0x68(%rbp),%rcx
  401252:	48 8b 55 a0          	mov    -0x60(%rbp),%rdx
  401256:	48 89 ce             	mov    %rcx,%rsi
  401259:	48 89 d7             	mov    %rdx,%rdi
  40125c:	ff d0                	callq  *%rax
  40125e:	83 45 d4 01          	addl   $0x1,-0x2c(%rbp)
  401262:	83 7d d4 02          	cmpl   $0x2,-0x2c(%rbp)
  401266:	7e a9                	jle    401211 <SppIterate+0x554>
  401268:	48 8b 45 a0          	mov    -0x60(%rbp),%rax
  40126c:	8b 40 10             	mov    0x10(%rax),%eax
  40126f:	83 f8 01             	cmp    $0x1,%eax
  401272:	7e 23                	jle    401297 <SppIterate+0x5da>
  401274:	48 8b 45 a0          	mov    -0x60(%rbp),%rax
  401278:	8b 50 10             	mov    0x10(%rax),%edx
  40127b:	48 8b 75 98          	mov    -0x68(%rbp),%rsi
  40127f:	48 8b 45 a0          	mov    -0x60(%rbp),%rax
  401283:	89 d1                	mov    %edx,%ecx
  401285:	ba 00 00 00 00       	mov    $0x0,%edx
  40128a:	48 89 c7             	mov    %rax,%rdi
  40128d:	e8 d0 0c 00 00       	callq  401f62 <SetUpAndExecute>
  401292:	e9 8a 01 00 00       	jmpq   401421 <SppIterate+0x764>
  401297:	e8 24 f8 ff ff       	callq  400ac0 <fork@plt>
  40129c:	89 45 dc             	mov    %eax,-0x24(%rbp)
  40129f:	83 7d dc 00          	cmpl   $0x0,-0x24(%rbp)
  4012a3:	74 1b                	je     4012c0 <SppIterate+0x603>
  4012a5:	48 8d 4d bc          	lea    -0x44(%rbp),%rcx
  4012a9:	8b 45 dc             	mov    -0x24(%rbp),%eax
  4012ac:	ba 00 00 00 00       	mov    $0x0,%edx
  4012b1:	48 89 ce             	mov    %rcx,%rsi
  4012b4:	89 c7                	mov    %eax,%edi
  4012b6:	e8 b5 f7 ff ff       	callq  400a70 <waitpid@plt>
  4012bb:	e9 61 01 00 00       	jmpq   401421 <SppIterate+0x764>
  4012c0:	83 7d dc 00          	cmpl   $0x0,-0x24(%rbp)
  4012c4:	0f 89 88 00 00 00    	jns    401352 <SppIterate+0x695>
  4012ca:	48 8b 45 98          	mov    -0x68(%rbp),%rax
  4012ce:	c7 00 01 00 00 00    	movl   $0x1,(%rax)
  4012d4:	48 8b 45 98          	mov    -0x68(%rbp),%rax
  4012d8:	c7 40 04 c9 00 00 00 	movl   $0xc9,0x4(%rax)
  4012df:	48 8b 45 98          	mov    -0x68(%rbp),%rax
  4012e3:	48 bb 46 6f 72 6b 20 	movabs $0x696166206b726f46,%rbx
  4012ea:	66 61 69 
  4012ed:	48 89 58 08          	mov    %rbx,0x8(%rax)
  4012f1:	48 c7 40 10 6c 65 64 	movq   $0x2e64656c,0x10(%rax)
  4012f8:	2e 
  4012f9:	48 83 c0 18          	add    $0x18,%rax
  4012fd:	b9 30 00 00 00       	mov    $0x30,%ecx
  401302:	be 00 00 00 00       	mov    $0x0,%esi
  401307:	48 89 30             	mov    %rsi,(%rax)
  40130a:	89 ca                	mov    %ecx,%edx
  40130c:	48 01 c2             	add    %rax,%rdx
  40130f:	48 83 c2 08          	add    $0x8,%rdx
  401313:	48 89 72 f0          	mov    %rsi,-0x10(%rdx)
  401317:	48 8d 50 08          	lea    0x8(%rax),%rdx
  40131b:	48 83 e2 f8          	and    $0xfffffffffffffff8,%rdx
  40131f:	48 29 d0             	sub    %rdx,%rax
  401322:	01 c1                	add    %eax,%ecx
  401324:	83 e1 f8             	and    $0xfffffff8,%ecx
  401327:	89 c8                	mov    %ecx,%eax
  401329:	c1 e8 03             	shr    $0x3,%eax
  40132c:	89 c1                	mov    %eax,%ecx
  40132e:	48 89 d7             	mov    %rdx,%rdi
  401331:	48 89 f0             	mov    %rsi,%rax
  401334:	f3 48 ab             	rep stos %rax,%es:(%rdi)
  401337:	48 8b 45 98          	mov    -0x68(%rbp),%rax
  40133b:	c7 40 48 00 00 00 00 	movl   $0x0,0x48(%rax)
  401342:	48 8b 45 98          	mov    -0x68(%rbp),%rax
  401346:	c7 40 4c 00 00 00 00 	movl   $0x0,0x4c(%rax)
  40134d:	e9 cf 00 00 00       	jmpq   401421 <SppIterate+0x764>
  401352:	48 8b 4d 98          	mov    -0x68(%rbp),%rcx
  401356:	48 8b 45 a0          	mov    -0x60(%rbp),%rax
  40135a:	ba 00 00 00 00       	mov    $0x0,%edx
  40135f:	48 89 ce             	mov    %rcx,%rsi
  401362:	48 89 c7             	mov    %rax,%rdi
  401365:	e8 d5 09 00 00       	callq  401d3f <SetRedirs>
  40136a:	48 8b 45 a0          	mov    -0x60(%rbp),%rax
  40136e:	48 8b 40 08          	mov    0x8(%rax),%rax
  401372:	48 8b 50 08          	mov    0x8(%rax),%rdx
  401376:	48 8b 45 a0          	mov    -0x60(%rbp),%rax
  40137a:	48 8b 40 08          	mov    0x8(%rax),%rax
  40137e:	48 8b 40 08          	mov    0x8(%rax),%rax
  401382:	48 8b 00             	mov    (%rax),%rax
  401385:	48 89 d6             	mov    %rdx,%rsi
  401388:	48 89 c7             	mov    %rax,%rdi
  40138b:	e8 10 f7 ff ff       	callq  400aa0 <execvp@plt>
  401390:	48 8b 45 98          	mov    -0x68(%rbp),%rax
  401394:	c7 00 01 00 00 00    	movl   $0x1,(%rax)
  40139a:	48 8b 45 98          	mov    -0x68(%rbp),%rax
  40139e:	c7 40 04 ca 00 00 00 	movl   $0xca,0x4(%rax)
  4013a5:	48 8b 45 98          	mov    -0x68(%rbp),%rax
  4013a9:	48 bb 54 61 72 67 65 	movabs $0x6620746567726154,%rbx
  4013b0:	74 20 66 
  4013b3:	48 89 58 08          	mov    %rbx,0x8(%rax)
  4013b7:	48 bb 75 6e 63 74 69 	movabs $0x206e6f6974636e75,%rbx
  4013be:	6f 6e 20 
  4013c1:	48 89 58 10          	mov    %rbx,0x10(%rax)
  4013c5:	48 bb 66 61 69 6c 65 	movabs $0x742064656c696166,%rbx
  4013cc:	64 20 74 
  4013cf:	48 89 58 18          	mov    %rbx,0x18(%rax)
  4013d3:	48 bb 6f 20 65 78 65 	movabs $0x747563657865206f,%rbx
  4013da:	63 75 74 
  4013dd:	48 89 58 20          	mov    %rbx,0x20(%rax)
  4013e1:	48 c7 40 28 65 2e 00 	movq   $0x2e65,0x28(%rax)
  4013e8:	00 
  4013e9:	48 c7 40 30 00 00 00 	movq   $0x0,0x30(%rax)
  4013f0:	00 
  4013f1:	48 c7 40 38 00 00 00 	movq   $0x0,0x38(%rax)
  4013f8:	00 
  4013f9:	48 c7 40 40 00 00 00 	movq   $0x0,0x40(%rax)
  401400:	00 
  401401:	48 8b 45 98          	mov    -0x68(%rbp),%rax
  401405:	c7 40 48 00 00 00 00 	movl   $0x0,0x48(%rax)
  40140c:	48 8b 45 98          	mov    -0x68(%rbp),%rax
  401410:	c7 40 4c 00 00 00 00 	movl   $0x0,0x4c(%rax)
  401417:	bf 01 00 00 00       	mov    $0x1,%edi
  40141c:	e8 8f f6 ff ff       	callq  400ab0 <exit@plt>
  401421:	c7 45 c0 06 00 00 00 	movl   $0x6,-0x40(%rbp)
  401428:	eb 10                	jmp    40143a <SppIterate+0x77d>
  40142a:	48 8b 45 a0          	mov    -0x60(%rbp),%rax
  40142e:	48 8b 00             	mov    (%rax),%rax
  401431:	48 89 c7             	mov    %rax,%rdi
  401434:	e8 17 f5 ff ff       	callq  400950 <free@plt>
  401439:	90                   	nop
  40143a:	8b 45 c0             	mov    -0x40(%rbp),%eax
  40143d:	48 8b 5d e8          	mov    -0x18(%rbp),%rbx
  401441:	64 48 33 1c 25 28 00 	xor    %fs:0x28,%rbx
  401448:	00 00 
  40144a:	74 05                	je     401451 <SppIterate+0x794>
  40144c:	e8 4f f5 ff ff       	callq  4009a0 <__stack_chk_fail@plt>
  401451:	48 83 c4 68          	add    $0x68,%rsp
  401455:	5b                   	pop    %rbx
  401456:	5d                   	pop    %rbp
  401457:	c3                   	retq   

0000000000401458 <GrabLine>:
  401458:	55                   	push   %rbp
  401459:	48 89 e5             	mov    %rsp,%rbp
  40145c:	48 83 ec 30          	sub    $0x30,%rsp
  401460:	48 89 7d d8          	mov    %rdi,-0x28(%rbp)
  401464:	48 89 75 d0          	mov    %rsi,-0x30(%rbp)
  401468:	48 8b 45 d0          	mov    -0x30(%rbp),%rax
  40146c:	8b 00                	mov    (%rax),%eax
  40146e:	85 c0                	test   %eax,%eax
  401470:	0f 85 03 01 00 00    	jne    401579 <GrabLine+0x121>
  401476:	48 8b 45 d8          	mov    -0x28(%rbp),%rax
  40147a:	48 89 45 f8          	mov    %rax,-0x8(%rbp)
  40147e:	c7 45 e8 00 00 00 00 	movl   $0x0,-0x18(%rbp)
  401485:	c7 45 ec 00 00 00 00 	movl   $0x0,-0x14(%rbp)
  40148c:	c7 45 f0 00 00 00 00 	movl   $0x0,-0x10(%rbp)
  401493:	48 8b 05 a6 2c 20 00 	mov    0x202ca6(%rip),%rax        # 604140 <stdin@@GLIBC_2.2.5>
  40149a:	48 89 c7             	mov    %rax,%rdi
  40149d:	e8 2e f5 ff ff       	callq  4009d0 <fgetc@plt>
  4014a2:	88 45 e7             	mov    %al,-0x19(%rbp)
  4014a5:	80 7d e7 0a          	cmpb   $0xa,-0x19(%rbp)
  4014a9:	74 1b                	je     4014c6 <GrabLine+0x6e>
  4014ab:	48 8b 45 f8          	mov    -0x8(%rbp),%rax
  4014af:	0f b6 55 e7          	movzbl -0x19(%rbp),%edx
  4014b3:	88 10                	mov    %dl,(%rax)
  4014b5:	48 83 45 f8 01       	addq   $0x1,-0x8(%rbp)
  4014ba:	83 45 e8 01          	addl   $0x1,-0x18(%rbp)
  4014be:	83 7d e8 50          	cmpl   $0x50,-0x18(%rbp)
  4014c2:	7e cf                	jle    401493 <GrabLine+0x3b>
  4014c4:	eb 0c                	jmp    4014d2 <GrabLine+0x7a>
  4014c6:	48 8b 45 f8          	mov    -0x8(%rbp),%rax
  4014ca:	c6 00 00             	movb   $0x0,(%rax)
  4014cd:	e9 ab 00 00 00       	jmpq   40157d <GrabLine+0x125>
  4014d2:	c7 45 ec 01 00 00 00 	movl   $0x1,-0x14(%rbp)
  4014d9:	48 8b 45 d0          	mov    -0x30(%rbp),%rax
  4014dd:	c7 00 01 00 00 00    	movl   $0x1,(%rax)
  4014e3:	48 8b 45 d0          	mov    -0x30(%rbp),%rax
  4014e7:	c7 40 04 65 00 00 00 	movl   $0x65,0x4(%rax)
  4014ee:	48 8b 45 d0          	mov    -0x30(%rbp),%rax
  4014f2:	48 b9 4c 69 6e 65 20 	movabs $0x61686320656e694c,%rcx
  4014f9:	63 68 61 
  4014fc:	48 89 48 08          	mov    %rcx,0x8(%rax)
  401500:	48 be 72 61 63 74 65 	movabs $0x6c20726574636172,%rsi
  401507:	72 20 6c 
  40150a:	48 89 70 10          	mov    %rsi,0x10(%rax)
  40150e:	48 ba 69 6d 69 74 20 	movabs $0x6378652074696d69,%rdx
  401515:	65 78 63 
  401518:	48 89 50 18          	mov    %rdx,0x18(%rax)
  40151c:	48 b9 65 65 64 65 64 	movabs $0x2e6465646565,%rcx
  401523:	2e 00 00 
  401526:	48 89 48 20          	mov    %rcx,0x20(%rax)
  40152a:	48 c7 40 28 00 00 00 	movq   $0x0,0x28(%rax)
  401531:	00 
  401532:	48 c7 40 30 00 00 00 	movq   $0x0,0x30(%rax)
  401539:	00 
  40153a:	48 c7 40 38 00 00 00 	movq   $0x0,0x38(%rax)
  401541:	00 
  401542:	48 c7 40 40 00 00 00 	movq   $0x0,0x40(%rax)
  401549:	00 
  40154a:	48 8b 45 d0          	mov    -0x30(%rbp),%rax
  40154e:	c7 40 48 00 00 00 00 	movl   $0x0,0x48(%rax)
  401555:	48 8b 45 d0          	mov    -0x30(%rbp),%rax
  401559:	c7 40 4c 00 00 00 00 	movl   $0x0,0x4c(%rax)
  401560:	eb 01                	jmp    401563 <GrabLine+0x10b>
  401562:	90                   	nop
  401563:	e8 d8 f4 ff ff       	callq  400a40 <getchar@plt>
  401568:	89 45 f4             	mov    %eax,-0xc(%rbp)
  40156b:	83 7d f4 ff          	cmpl   $0xffffffff,-0xc(%rbp)
  40156f:	74 0b                	je     40157c <GrabLine+0x124>
  401571:	83 7d f4 0a          	cmpl   $0xa,-0xc(%rbp)
  401575:	75 eb                	jne    401562 <GrabLine+0x10a>
  401577:	eb 03                	jmp    40157c <GrabLine+0x124>
  401579:	90                   	nop
  40157a:	eb 01                	jmp    40157d <GrabLine+0x125>
  40157c:	90                   	nop
  40157d:	c9                   	leaveq 
  40157e:	c3                   	retq   

000000000040157f <CheckSyntax>:
  40157f:	55                   	push   %rbp
  401580:	48 89 e5             	mov    %rsp,%rbp
  401583:	48 83 ec 40          	sub    $0x40,%rsp
  401587:	48 89 7d d8          	mov    %rdi,-0x28(%rbp)
  40158b:	48 89 75 d0          	mov    %rsi,-0x30(%rbp)
  40158f:	48 89 55 c8          	mov    %rdx,-0x38(%rbp)
  401593:	48 8b 45 c8          	mov    -0x38(%rbp),%rax
  401597:	8b 00                	mov    (%rax),%eax
  401599:	85 c0                	test   %eax,%eax
  40159b:	0f 85 88 03 00 00    	jne    401929 <CheckSyntax+0x3aa>
  4015a1:	48 8b 45 d8          	mov    -0x28(%rbp),%rax
  4015a5:	48 89 45 f8          	mov    %rax,-0x8(%rbp)
  4015a9:	c7 45 f0 00 00 00 00 	movl   $0x0,-0x10(%rbp)
  4015b0:	c7 45 f4 00 00 00 00 	movl   $0x0,-0xc(%rbp)
  4015b7:	c7 45 ec ff ff ff ff 	movl   $0xffffffff,-0x14(%rbp)
  4015be:	ba 09 00 00 00       	mov    $0x9,%edx
  4015c3:	be 00 2d 40 00       	mov    $0x402d00,%esi
  4015c8:	bf 60 41 60 00       	mov    $0x604160,%edi
  4015cd:	e8 2e f4 ff ff       	callq  400a00 <regcomp@plt>
  4015d2:	89 45 f4             	mov    %eax,-0xc(%rbp)
  4015d5:	83 7d f4 00          	cmpl   $0x0,-0xc(%rbp)
  4015d9:	0f 84 87 00 00 00    	je     401666 <CheckSyntax+0xe7>
  4015df:	48 8b 45 c8          	mov    -0x38(%rbp),%rax
  4015e3:	c7 00 01 00 00 00    	movl   $0x1,(%rax)
  4015e9:	48 8b 45 c8          	mov    -0x38(%rbp),%rax
  4015ed:	c7 40 04 2d 01 00 00 	movl   $0x12d,0x4(%rax)
  4015f4:	48 8b 45 c8          	mov    -0x38(%rbp),%rax
  4015f8:	48 bf 41 20 72 75 6e 	movabs $0x6d69746e75722041,%rdi
  4015ff:	74 69 6d 
  401602:	48 89 78 08          	mov    %rdi,0x8(%rax)
  401606:	48 bf 65 20 65 72 72 	movabs $0x20726f7272652065,%rdi
  40160d:	6f 72 20 
  401610:	48 89 78 10          	mov    %rdi,0x10(%rax)
  401614:	48 be 6f 63 63 75 72 	movabs $0x206465727563636f,%rsi
  40161b:	65 64 20 
  40161e:	48 89 70 18          	mov    %rsi,0x18(%rax)
  401622:	48 bf 69 6e 20 72 65 	movabs $0x7865676572206e69,%rdi
  401629:	67 65 78 
  40162c:	48 89 78 20          	mov    %rdi,0x20(%rax)
  401630:	48 c7 40 28 2e 68 00 	movq   $0x682e,0x28(%rax)
  401637:	00 
  401638:	48 c7 40 30 00 00 00 	movq   $0x0,0x30(%rax)
  40163f:	00 
  401640:	48 c7 40 38 00 00 00 	movq   $0x0,0x38(%rax)
  401647:	00 
  401648:	48 c7 40 40 00 00 00 	movq   $0x0,0x40(%rax)
  40164f:	00 
  401650:	48 8b 45 c8          	mov    -0x38(%rbp),%rax
  401654:	c7 40 48 00 00 00 00 	movl   $0x0,0x48(%rax)
  40165b:	48 8b 45 c8          	mov    -0x38(%rbp),%rax
  40165f:	c7 40 4c 01 00 00 00 	movl   $0x1,0x4c(%rax)
  401666:	48 8b 45 d8          	mov    -0x28(%rbp),%rax
  40166a:	41 b8 00 00 00 00    	mov    $0x0,%r8d
  401670:	b9 00 00 00 00       	mov    $0x0,%ecx
  401675:	ba 00 00 00 00       	mov    $0x0,%edx
  40167a:	48 89 c6             	mov    %rax,%rsi
  40167d:	bf 60 41 60 00       	mov    $0x604160,%edi
  401682:	e8 d9 f3 ff ff       	callq  400a60 <regexec@plt>
  401687:	89 45 f0             	mov    %eax,-0x10(%rbp)
  40168a:	48 8b 45 d8          	mov    -0x28(%rbp),%rax
  40168e:	0f b6 00             	movzbl (%rax),%eax
  401691:	84 c0                	test   %al,%al
  401693:	75 0f                	jne    4016a4 <CheckSyntax+0x125>
  401695:	48 8b 45 d0          	mov    -0x30(%rbp),%rax
  401699:	c7 00 01 00 00 00    	movl   $0x1,(%rax)
  40169f:	e9 86 02 00 00       	jmpq   40192a <CheckSyntax+0x3ab>
  4016a4:	83 7d f0 00          	cmpl   $0x0,-0x10(%rbp)
  4016a8:	0f 84 88 01 00 00    	je     401836 <CheckSyntax+0x2b7>
  4016ae:	48 8b 45 c8          	mov    -0x38(%rbp),%rax
  4016b2:	c7 00 01 00 00 00    	movl   $0x1,(%rax)
  4016b8:	48 8b 45 c8          	mov    -0x38(%rbp),%rax
  4016bc:	c7 40 04 66 00 00 00 	movl   $0x66,0x4(%rax)
  4016c3:	48 8b 45 c8          	mov    -0x38(%rbp),%rax
  4016c7:	48 be 53 79 6e 74 61 	movabs $0x45207861746e7953,%rsi
  4016ce:	78 20 45 
  4016d1:	48 89 70 08          	mov    %rsi,0x8(%rax)
  4016d5:	48 bf 72 72 6f 72 2e 	movabs $0x2e726f7272,%rdi
  4016dc:	00 00 00 
  4016df:	48 89 78 10          	mov    %rdi,0x10(%rax)
  4016e3:	48 83 c0 18          	add    $0x18,%rax
  4016e7:	b9 30 00 00 00       	mov    $0x30,%ecx
  4016ec:	be 00 00 00 00       	mov    $0x0,%esi
  4016f1:	48 89 30             	mov    %rsi,(%rax)
  4016f4:	89 ca                	mov    %ecx,%edx
  4016f6:	48 01 c2             	add    %rax,%rdx
  4016f9:	48 83 c2 08          	add    $0x8,%rdx
  4016fd:	48 89 72 f0          	mov    %rsi,-0x10(%rdx)
  401701:	48 8d 50 08          	lea    0x8(%rax),%rdx
  401705:	48 83 e2 f8          	and    $0xfffffffffffffff8,%rdx
  401709:	48 29 d0             	sub    %rdx,%rax
  40170c:	01 c1                	add    %eax,%ecx
  40170e:	83 e1 f8             	and    $0xfffffff8,%ecx
  401711:	89 c8                	mov    %ecx,%eax
  401713:	c1 e8 03             	shr    $0x3,%eax
  401716:	89 c1                	mov    %eax,%ecx
  401718:	48 89 d7             	mov    %rdx,%rdi
  40171b:	48 89 f0             	mov    %rsi,%rax
  40171e:	f3 48 ab             	rep stos %rax,%es:(%rdi)
  401721:	48 8b 45 c8          	mov    -0x38(%rbp),%rax
  401725:	c7 40 48 00 00 00 00 	movl   $0x0,0x48(%rax)
  40172c:	48 8b 45 c8          	mov    -0x38(%rbp),%rax
  401730:	c7 40 4c 00 00 00 00 	movl   $0x0,0x4c(%rax)
  401737:	48 8b 45 d0          	mov    -0x30(%rbp),%rax
  40173b:	c7 00 02 00 00 00    	movl   $0x2,(%rax)
  401741:	e9 e4 01 00 00       	jmpq   40192a <CheckSyntax+0x3ab>
  401746:	48 8b 45 f8          	mov    -0x8(%rbp),%rax
  40174a:	0f b6 00             	movzbl (%rax),%eax
  40174d:	3c 3e                	cmp    $0x3e,%al
  40174f:	75 11                	jne    401762 <CheckSyntax+0x1e3>
  401751:	c7 45 ec 3e 00 00 00 	movl   $0x3e,-0x14(%rbp)
  401758:	48 83 45 f8 01       	addq   $0x1,-0x8(%rbp)
  40175d:	e9 d4 00 00 00       	jmpq   401836 <CheckSyntax+0x2b7>
  401762:	48 8b 45 f8          	mov    -0x8(%rbp),%rax
  401766:	0f b6 00             	movzbl (%rax),%eax
  401769:	3c 3c                	cmp    $0x3c,%al
  40176b:	75 11                	jne    40177e <CheckSyntax+0x1ff>
  40176d:	c7 45 ec 3c 00 00 00 	movl   $0x3c,-0x14(%rbp)
  401774:	48 83 45 f8 01       	addq   $0x1,-0x8(%rbp)
  401779:	e9 b8 00 00 00       	jmpq   401836 <CheckSyntax+0x2b7>
  40177e:	48 83 45 f8 01       	addq   $0x1,-0x8(%rbp)
  401783:	48 8b 45 f8          	mov    -0x8(%rbp),%rax
  401787:	0f b6 00             	movzbl (%rax),%eax
  40178a:	0f be c0             	movsbl %al,%eax
  40178d:	3b 45 ec             	cmp    -0x14(%rbp),%eax
  401790:	0f 85 96 00 00 00    	jne    40182c <CheckSyntax+0x2ad>
  401796:	48 8b 45 c8          	mov    -0x38(%rbp),%rax
  40179a:	c7 00 01 00 00 00    	movl   $0x1,(%rax)
  4017a0:	48 8b 45 c8          	mov    -0x38(%rbp),%rax
  4017a4:	c7 40 04 70 00 00 00 	movl   $0x70,0x4(%rax)
  4017ab:	48 8b 45 c8          	mov    -0x38(%rbp),%rax
  4017af:	48 b9 53 79 6e 74 61 	movabs $0x45207861746e7953,%rcx
  4017b6:	78 20 45 
  4017b9:	48 89 48 08          	mov    %rcx,0x8(%rax)
  4017bd:	48 be 72 72 6f 72 20 	movabs $0x44202d20726f7272,%rsi
  4017c4:	2d 20 44 
  4017c7:	48 89 70 10          	mov    %rsi,0x10(%rax)
  4017cb:	48 bf 6f 75 62 6c 65 	movabs $0x655220656c62756f,%rdi
  4017d2:	20 52 65 
  4017d5:	48 89 78 18          	mov    %rdi,0x18(%rax)
  4017d9:	48 b9 64 69 72 65 63 	movabs $0x2e746365726964,%rcx
  4017e0:	74 2e 00 
  4017e3:	48 89 48 20          	mov    %rcx,0x20(%rax)
  4017e7:	48 c7 40 28 00 00 00 	movq   $0x0,0x28(%rax)
  4017ee:	00 
  4017ef:	48 c7 40 30 00 00 00 	movq   $0x0,0x30(%rax)
  4017f6:	00 
  4017f7:	48 c7 40 38 00 00 00 	movq   $0x0,0x38(%rax)
  4017fe:	00 
  4017ff:	48 c7 40 40 00 00 00 	movq   $0x0,0x40(%rax)
  401806:	00 
  401807:	48 8b 45 c8          	mov    -0x38(%rbp),%rax
  40180b:	c7 40 48 00 00 00 00 	movl   $0x0,0x48(%rax)
  401812:	48 8b 45 c8          	mov    -0x38(%rbp),%rax
  401816:	c7 40 4c 00 00 00 00 	movl   $0x0,0x4c(%rax)
  40181d:	48 8b 45 d0          	mov    -0x30(%rbp),%rax
  401821:	c7 00 02 00 00 00    	movl   $0x2,(%rax)
  401827:	e9 fe 00 00 00       	jmpq   40192a <CheckSyntax+0x3ab>
  40182c:	48 8b 45 d0          	mov    -0x30(%rbp),%rax
  401830:	c7 00 00 00 00 00    	movl   $0x0,(%rax)
  401836:	48 8b 45 f8          	mov    -0x8(%rbp),%rax
  40183a:	0f b6 00             	movzbl (%rax),%eax
  40183d:	84 c0                	test   %al,%al
  40183f:	0f 85 01 ff ff ff    	jne    401746 <CheckSyntax+0x1c7>
  401845:	48 8b 45 d8          	mov    -0x28(%rbp),%rax
  401849:	48 89 45 f8          	mov    %rax,-0x8(%rbp)
  40184d:	e9 c6 00 00 00       	jmpq   401918 <CheckSyntax+0x399>
  401852:	48 8b 45 f8          	mov    -0x8(%rbp),%rax
  401856:	0f b6 00             	movzbl (%rax),%eax
  401859:	3c 20                	cmp    $0x20,%al
  40185b:	0f 84 a8 00 00 00    	je     401909 <CheckSyntax+0x38a>
  401861:	48 8b 45 f8          	mov    -0x8(%rbp),%rax
  401865:	48 83 c0 01          	add    $0x1,%rax
  401869:	0f b6 00             	movzbl (%rax),%eax
  40186c:	3c 7c                	cmp    $0x7c,%al
  40186e:	0f 85 95 00 00 00    	jne    401909 <CheckSyntax+0x38a>
  401874:	48 8b 45 c8          	mov    -0x38(%rbp),%rax
  401878:	c7 00 01 00 00 00    	movl   $0x1,(%rax)
  40187e:	48 8b 45 c8          	mov    -0x38(%rbp),%rax
  401882:	c7 40 04 66 00 00 00 	movl   $0x66,0x4(%rax)
  401889:	48 8b 45 c8          	mov    -0x38(%rbp),%rax
  40188d:	48 be 53 79 6e 74 61 	movabs $0x45207861746e7953,%rsi
  401894:	78 20 45 
  401897:	48 89 70 08          	mov    %rsi,0x8(%rax)
  40189b:	48 bf 72 72 6f 72 2e 	movabs $0x2e726f7272,%rdi
  4018a2:	00 00 00 
  4018a5:	48 89 78 10          	mov    %rdi,0x10(%rax)
  4018a9:	48 83 c0 18          	add    $0x18,%rax
  4018ad:	b9 30 00 00 00       	mov    $0x30,%ecx
  4018b2:	be 00 00 00 00       	mov    $0x0,%esi
  4018b7:	48 89 30             	mov    %rsi,(%rax)
  4018ba:	89 ca                	mov    %ecx,%edx
  4018bc:	48 01 c2             	add    %rax,%rdx
  4018bf:	48 83 c2 08          	add    $0x8,%rdx
  4018c3:	48 89 72 f0          	mov    %rsi,-0x10(%rdx)
  4018c7:	48 8d 50 08          	lea    0x8(%rax),%rdx
  4018cb:	48 83 e2 f8          	and    $0xfffffffffffffff8,%rdx
  4018cf:	48 29 d0             	sub    %rdx,%rax
  4018d2:	01 c1                	add    %eax,%ecx
  4018d4:	83 e1 f8             	and    $0xfffffff8,%ecx
  4018d7:	89 c8                	mov    %ecx,%eax
  4018d9:	c1 e8 03             	shr    $0x3,%eax
  4018dc:	89 c1                	mov    %eax,%ecx
  4018de:	48 89 d7             	mov    %rdx,%rdi
  4018e1:	48 89 f0             	mov    %rsi,%rax
  4018e4:	f3 48 ab             	rep stos %rax,%es:(%rdi)
  4018e7:	48 8b 45 c8          	mov    -0x38(%rbp),%rax
  4018eb:	c7 40 48 00 00 00 00 	movl   $0x0,0x48(%rax)
  4018f2:	48 8b 45 c8          	mov    -0x38(%rbp),%rax
  4018f6:	c7 40 4c 00 00 00 00 	movl   $0x0,0x4c(%rax)
  4018fd:	48 8b 45 d0          	mov    -0x30(%rbp),%rax
  401901:	c7 00 02 00 00 00    	movl   $0x2,(%rax)
  401907:	eb 21                	jmp    40192a <CheckSyntax+0x3ab>
  401909:	48 8b 45 d0          	mov    -0x30(%rbp),%rax
  40190d:	c7 00 00 00 00 00    	movl   $0x0,(%rax)
  401913:	48 83 45 f8 01       	addq   $0x1,-0x8(%rbp)
  401918:	48 8b 45 f8          	mov    -0x8(%rbp),%rax
  40191c:	0f b6 00             	movzbl (%rax),%eax
  40191f:	84 c0                	test   %al,%al
  401921:	0f 85 2b ff ff ff    	jne    401852 <CheckSyntax+0x2d3>
  401927:	eb 01                	jmp    40192a <CheckSyntax+0x3ab>
  401929:	90                   	nop
  40192a:	c9                   	leaveq 
  40192b:	c3                   	retq   

000000000040192c <HandleError>:
  40192c:	55                   	push   %rbp
  40192d:	48 89 e5             	mov    %rsp,%rbp
  401930:	48 83 ec 10          	sub    $0x10,%rsp
  401934:	48 89 7d f8          	mov    %rdi,-0x8(%rbp)
  401938:	48 8b 45 f8          	mov    -0x8(%rbp),%rax
  40193c:	8b 00                	mov    (%rax),%eax
  40193e:	83 f8 01             	cmp    $0x1,%eax
  401941:	75 20                	jne    401963 <HandleError+0x37>
  401943:	48 8b 45 f8          	mov    -0x8(%rbp),%rax
  401947:	48 8d 50 08          	lea    0x8(%rax),%rdx
  40194b:	48 8b 45 f8          	mov    -0x8(%rbp),%rax
  40194f:	8b 40 04             	mov    0x4(%rax),%eax
  401952:	89 c6                	mov    %eax,%esi
  401954:	bf 5d 2d 40 00       	mov    $0x402d5d,%edi
  401959:	b8 00 00 00 00       	mov    $0x0,%eax
  40195e:	e8 5d f0 ff ff       	callq  4009c0 <printf@plt>
  401963:	48 8b 45 f8          	mov    -0x8(%rbp),%rax
  401967:	8b 40 48             	mov    0x48(%rax),%eax
  40196a:	83 f8 01             	cmp    $0x1,%eax
  40196d:	75 0a                	jne    401979 <HandleError+0x4d>
  40196f:	bf 00 00 00 00       	mov    $0x0,%edi
  401974:	e8 37 f1 ff ff       	callq  400ab0 <exit@plt>
  401979:	90                   	nop
  40197a:	c9                   	leaveq 
  40197b:	c3                   	retq   

000000000040197c <ExtractCmds>:
  40197c:	55                   	push   %rbp
  40197d:	48 89 e5             	mov    %rsp,%rbp
  401980:	48 83 ec 30          	sub    $0x30,%rsp
  401984:	48 89 7d d8          	mov    %rdi,-0x28(%rbp)
  401988:	48 89 75 d0          	mov    %rsi,-0x30(%rbp)
  40198c:	64 48 8b 04 25 28 00 	mov    %fs:0x28,%rax
  401993:	00 00 
  401995:	48 89 45 f8          	mov    %rax,-0x8(%rbp)
  401999:	31 c0                	xor    %eax,%eax
  40199b:	c7 45 e8 00 00 00 00 	movl   $0x0,-0x18(%rbp)
  4019a2:	e9 98 00 00 00       	jmpq   401a3f <ExtractCmds+0xc3>
  4019a7:	c7 45 ec 00 00 00 00 	movl   $0x0,-0x14(%rbp)
  4019ae:	48 8b 45 d8          	mov    -0x28(%rbp),%rax
  4019b2:	48 8b 48 08          	mov    0x8(%rax),%rcx
  4019b6:	8b 45 e8             	mov    -0x18(%rbp),%eax
  4019b9:	48 63 d0             	movslq %eax,%rdx
  4019bc:	48 89 d0             	mov    %rdx,%rax
  4019bf:	48 01 c0             	add    %rax,%rax
  4019c2:	48 01 d0             	add    %rdx,%rax
  4019c5:	48 c1 e0 04          	shl    $0x4,%rax
  4019c9:	48 01 c8             	add    %rcx,%rax
  4019cc:	c7 40 10 00 00 00 00 	movl   $0x0,0x10(%rax)
  4019d3:	48 8b 45 d8          	mov    -0x28(%rbp),%rax
  4019d7:	48 8b 48 08          	mov    0x8(%rax),%rcx
  4019db:	8b 45 e8             	mov    -0x18(%rbp),%eax
  4019de:	48 63 d0             	movslq %eax,%rdx
  4019e1:	48 89 d0             	mov    %rdx,%rax
  4019e4:	48 01 c0             	add    %rax,%rax
  4019e7:	48 01 d0             	add    %rdx,%rax
  4019ea:	48 c1 e0 04          	shl    $0x4,%rax
  4019ee:	48 01 c8             	add    %rcx,%rax
  4019f1:	48 8b 00             	mov    (%rax),%rax
  4019f4:	48 89 45 f0          	mov    %rax,-0x10(%rbp)
  4019f8:	48 8b 45 d8          	mov    -0x28(%rbp),%rax
  4019fc:	48 8b 48 08          	mov    0x8(%rax),%rcx
  401a00:	8b 45 e8             	mov    -0x18(%rbp),%eax
  401a03:	48 63 d0             	movslq %eax,%rdx
  401a06:	48 89 d0             	mov    %rdx,%rax
  401a09:	48 01 c0             	add    %rax,%rax
  401a0c:	48 01 d0             	add    %rdx,%rax
  401a0f:	48 c1 e0 04          	shl    $0x4,%rax
  401a13:	48 8d 3c 01          	lea    (%rcx,%rax,1),%rdi
  401a17:	48 8b 55 d0          	mov    -0x30(%rbp),%rdx
  401a1b:	48 8d 75 f0          	lea    -0x10(%rbp),%rsi
  401a1f:	8b 45 ec             	mov    -0x14(%rbp),%eax
  401a22:	48 89 d1             	mov    %rdx,%rcx
  401a25:	48 89 fa             	mov    %rdi,%rdx
  401a28:	89 c7                	mov    %eax,%edi
  401a2a:	e8 37 00 00 00       	callq  401a66 <RunExtractor>
  401a2f:	89 45 ec             	mov    %eax,-0x14(%rbp)
  401a32:	83 7d ec 08          	cmpl   $0x8,-0x14(%rbp)
  401a36:	74 02                	je     401a3a <ExtractCmds+0xbe>
  401a38:	eb be                	jmp    4019f8 <ExtractCmds+0x7c>
  401a3a:	90                   	nop
  401a3b:	83 45 e8 01          	addl   $0x1,-0x18(%rbp)
  401a3f:	48 8b 45 d8          	mov    -0x28(%rbp),%rax
  401a43:	8b 40 10             	mov    0x10(%rax),%eax
  401a46:	3b 45 e8             	cmp    -0x18(%rbp),%eax
  401a49:	0f 8f 58 ff ff ff    	jg     4019a7 <ExtractCmds+0x2b>
  401a4f:	90                   	nop
  401a50:	48 8b 45 f8          	mov    -0x8(%rbp),%rax
  401a54:	64 48 33 04 25 28 00 	xor    %fs:0x28,%rax
  401a5b:	00 00 
  401a5d:	74 05                	je     401a64 <ExtractCmds+0xe8>
  401a5f:	e8 3c ef ff ff       	callq  4009a0 <__stack_chk_fail@plt>
  401a64:	c9                   	leaveq 
  401a65:	c3                   	retq   

0000000000401a66 <RunExtractor>:
  401a66:	55                   	push   %rbp
  401a67:	48 89 e5             	mov    %rsp,%rbp
  401a6a:	53                   	push   %rbx
  401a6b:	48 83 ec 38          	sub    $0x38,%rsp
  401a6f:	89 7d dc             	mov    %edi,-0x24(%rbp)
  401a72:	48 89 75 d0          	mov    %rsi,-0x30(%rbp)
  401a76:	48 89 55 c8          	mov    %rdx,-0x38(%rbp)
  401a7a:	48 89 4d c0          	mov    %rcx,-0x40(%rbp)
  401a7e:	c7 45 e8 08 00 00 00 	movl   $0x8,-0x18(%rbp)
  401a85:	83 7d dc 08          	cmpl   $0x8,-0x24(%rbp)
  401a89:	0f 87 29 02 00 00    	ja     401cb8 <RunExtractor+0x252>
  401a8f:	8b 45 dc             	mov    -0x24(%rbp),%eax
  401a92:	48 8b 04 c5 70 2d 40 	mov    0x402d70(,%rax,8),%rax
  401a99:	00 
  401a9a:	ff e0                	jmpq   *%rax
  401a9c:	bf 41 00 00 00       	mov    $0x41,%edi
  401aa1:	e8 aa ef ff ff       	callq  400a50 <malloc@plt>
  401aa6:	48 89 c2             	mov    %rax,%rdx
  401aa9:	48 8b 45 c8          	mov    -0x38(%rbp),%rax
  401aad:	48 89 50 08          	mov    %rdx,0x8(%rax)
  401ab1:	48 8b 45 c8          	mov    -0x38(%rbp),%rax
  401ab5:	48 8b 00             	mov    (%rax),%rax
  401ab8:	be 6b 2d 40 00       	mov    $0x402d6b,%esi
  401abd:	48 89 c7             	mov    %rax,%rdi
  401ac0:	e8 cb ef ff ff       	callq  400a90 <strtok@plt>
  401ac5:	48 89 c2             	mov    %rax,%rdx
  401ac8:	48 8b 45 d0          	mov    -0x30(%rbp),%rax
  401acc:	48 89 10             	mov    %rdx,(%rax)
  401acf:	c7 45 e8 06 00 00 00 	movl   $0x6,-0x18(%rbp)
  401ad6:	e9 dd 01 00 00       	jmpq   401cb8 <RunExtractor+0x252>
  401adb:	be 6b 2d 40 00       	mov    $0x402d6b,%esi
  401ae0:	bf 00 00 00 00       	mov    $0x0,%edi
  401ae5:	e8 a6 ef ff ff       	callq  400a90 <strtok@plt>
  401aea:	48 89 c2             	mov    %rax,%rdx
  401aed:	48 8b 45 d0          	mov    -0x30(%rbp),%rax
  401af1:	48 89 10             	mov    %rdx,(%rax)
  401af4:	48 8b 45 d0          	mov    -0x30(%rbp),%rax
  401af8:	48 8b 00             	mov    (%rax),%rax
  401afb:	48 85 c0             	test   %rax,%rax
  401afe:	74 0e                	je     401b0e <RunExtractor+0xa8>
  401b00:	48 8b 45 d0          	mov    -0x30(%rbp),%rax
  401b04:	48 8b 00             	mov    (%rax),%rax
  401b07:	0f b6 00             	movzbl (%rax),%eax
  401b0a:	84 c0                	test   %al,%al
  401b0c:	75 0c                	jne    401b1a <RunExtractor+0xb4>
  401b0e:	c7 45 e8 07 00 00 00 	movl   $0x7,-0x18(%rbp)
  401b15:	e9 9e 01 00 00       	jmpq   401cb8 <RunExtractor+0x252>
  401b1a:	48 8b 45 d0          	mov    -0x30(%rbp),%rax
  401b1e:	48 8b 00             	mov    (%rax),%rax
  401b21:	0f b6 00             	movzbl (%rax),%eax
  401b24:	3c 3c                	cmp    $0x3c,%al
  401b26:	75 0c                	jne    401b34 <RunExtractor+0xce>
  401b28:	c7 45 e8 03 00 00 00 	movl   $0x3,-0x18(%rbp)
  401b2f:	e9 84 01 00 00       	jmpq   401cb8 <RunExtractor+0x252>
  401b34:	48 8b 45 d0          	mov    -0x30(%rbp),%rax
  401b38:	48 8b 00             	mov    (%rax),%rax
  401b3b:	0f b6 00             	movzbl (%rax),%eax
  401b3e:	3c 3e                	cmp    $0x3e,%al
  401b40:	75 0c                	jne    401b4e <RunExtractor+0xe8>
  401b42:	c7 45 e8 02 00 00 00 	movl   $0x2,-0x18(%rbp)
  401b49:	e9 6a 01 00 00       	jmpq   401cb8 <RunExtractor+0x252>
  401b4e:	c7 45 e8 06 00 00 00 	movl   $0x6,-0x18(%rbp)
  401b55:	e9 5e 01 00 00       	jmpq   401cb8 <RunExtractor+0x252>
  401b5a:	48 8b 45 c8          	mov    -0x38(%rbp),%rax
  401b5e:	c7 40 14 01 00 00 00 	movl   $0x1,0x14(%rax)
  401b65:	c7 45 e8 04 00 00 00 	movl   $0x4,-0x18(%rbp)
  401b6c:	e9 47 01 00 00       	jmpq   401cb8 <RunExtractor+0x252>
  401b71:	be 6b 2d 40 00       	mov    $0x402d6b,%esi
  401b76:	bf 00 00 00 00       	mov    $0x0,%edi
  401b7b:	e8 10 ef ff ff       	callq  400a90 <strtok@plt>
  401b80:	48 89 c2             	mov    %rax,%rdx
  401b83:	48 8b 45 d0          	mov    -0x30(%rbp),%rax
  401b87:	48 89 10             	mov    %rdx,(%rax)
  401b8a:	48 8b 45 d0          	mov    -0x30(%rbp),%rax
  401b8e:	48 8b 10             	mov    (%rax),%rdx
  401b91:	48 8b 45 c8          	mov    -0x38(%rbp),%rax
  401b95:	48 8b 40 20          	mov    0x20(%rax),%rax
  401b99:	48 89 d6             	mov    %rdx,%rsi
  401b9c:	48 89 c7             	mov    %rax,%rdi
  401b9f:	e8 bc ed ff ff       	callq  400960 <strcpy@plt>
  401ba4:	c7 45 e8 01 00 00 00 	movl   $0x1,-0x18(%rbp)
  401bab:	e9 08 01 00 00       	jmpq   401cb8 <RunExtractor+0x252>
  401bb0:	48 8b 45 c8          	mov    -0x38(%rbp),%rax
  401bb4:	c7 40 18 01 00 00 00 	movl   $0x1,0x18(%rax)
  401bbb:	c7 45 e8 05 00 00 00 	movl   $0x5,-0x18(%rbp)
  401bc2:	e9 f1 00 00 00       	jmpq   401cb8 <RunExtractor+0x252>
  401bc7:	be 6b 2d 40 00       	mov    $0x402d6b,%esi
  401bcc:	bf 00 00 00 00       	mov    $0x0,%edi
  401bd1:	e8 ba ee ff ff       	callq  400a90 <strtok@plt>
  401bd6:	48 89 c2             	mov    %rax,%rdx
  401bd9:	48 8b 45 d0          	mov    -0x30(%rbp),%rax
  401bdd:	48 89 10             	mov    %rdx,(%rax)
  401be0:	48 8b 45 d0          	mov    -0x30(%rbp),%rax
  401be4:	48 8b 10             	mov    (%rax),%rdx
  401be7:	48 8b 45 c8          	mov    -0x38(%rbp),%rax
  401beb:	48 8b 40 28          	mov    0x28(%rax),%rax
  401bef:	48 89 d6             	mov    %rdx,%rsi
  401bf2:	48 89 c7             	mov    %rax,%rdi
  401bf5:	e8 66 ed ff ff       	callq  400960 <strcpy@plt>
  401bfa:	c7 45 e8 01 00 00 00 	movl   $0x1,-0x18(%rbp)
  401c01:	e9 b2 00 00 00       	jmpq   401cb8 <RunExtractor+0x252>
  401c06:	48 8b 45 c8          	mov    -0x38(%rbp),%rax
  401c0a:	8b 40 10             	mov    0x10(%rax),%eax
  401c0d:	89 45 ec             	mov    %eax,-0x14(%rbp)
  401c10:	48 8b 45 c8          	mov    -0x38(%rbp),%rax
  401c14:	48 8b 40 08          	mov    0x8(%rax),%rax
  401c18:	8b 55 ec             	mov    -0x14(%rbp),%edx
  401c1b:	48 63 d2             	movslq %edx,%rdx
  401c1e:	48 c1 e2 03          	shl    $0x3,%rdx
  401c22:	48 8d 1c 10          	lea    (%rax,%rdx,1),%rbx
  401c26:	48 8b 45 d0          	mov    -0x30(%rbp),%rax
  401c2a:	48 8b 00             	mov    (%rax),%rax
  401c2d:	48 89 c7             	mov    %rax,%rdi
  401c30:	e8 4b ed ff ff       	callq  400980 <strlen@plt>
  401c35:	48 83 c0 01          	add    $0x1,%rax
  401c39:	48 89 c7             	mov    %rax,%rdi
  401c3c:	e8 0f ee ff ff       	callq  400a50 <malloc@plt>
  401c41:	48 89 03             	mov    %rax,(%rbx)
  401c44:	48 8b 45 d0          	mov    -0x30(%rbp),%rax
  401c48:	48 8b 10             	mov    (%rax),%rdx
  401c4b:	48 8b 45 c8          	mov    -0x38(%rbp),%rax
  401c4f:	48 8b 40 08          	mov    0x8(%rax),%rax
  401c53:	8b 4d ec             	mov    -0x14(%rbp),%ecx
  401c56:	48 63 c9             	movslq %ecx,%rcx
  401c59:	48 c1 e1 03          	shl    $0x3,%rcx
  401c5d:	48 01 c8             	add    %rcx,%rax
  401c60:	48 8b 00             	mov    (%rax),%rax
  401c63:	48 89 d6             	mov    %rdx,%rsi
  401c66:	48 89 c7             	mov    %rax,%rdi
  401c69:	e8 f2 ec ff ff       	callq  400960 <strcpy@plt>
  401c6e:	48 8b 45 c8          	mov    -0x38(%rbp),%rax
  401c72:	8b 40 10             	mov    0x10(%rax),%eax
  401c75:	8d 50 01             	lea    0x1(%rax),%edx
  401c78:	48 8b 45 c8          	mov    -0x38(%rbp),%rax
  401c7c:	89 50 10             	mov    %edx,0x10(%rax)
  401c7f:	c7 45 e8 01 00 00 00 	movl   $0x1,-0x18(%rbp)
  401c86:	eb 30                	jmp    401cb8 <RunExtractor+0x252>
  401c88:	48 8b 45 c8          	mov    -0x38(%rbp),%rax
  401c8c:	48 8b 50 08          	mov    0x8(%rax),%rdx
  401c90:	48 8b 45 c8          	mov    -0x38(%rbp),%rax
  401c94:	8b 40 10             	mov    0x10(%rax),%eax
  401c97:	48 98                	cltq   
  401c99:	48 c1 e0 03          	shl    $0x3,%rax
  401c9d:	48 01 d0             	add    %rdx,%rax
  401ca0:	48 c7 00 00 00 00 00 	movq   $0x0,(%rax)
  401ca7:	c7 45 e8 08 00 00 00 	movl   $0x8,-0x18(%rbp)
  401cae:	eb 08                	jmp    401cb8 <RunExtractor+0x252>
  401cb0:	c7 45 e8 08 00 00 00 	movl   $0x8,-0x18(%rbp)
  401cb7:	90                   	nop
  401cb8:	8b 45 e8             	mov    -0x18(%rbp),%eax
  401cbb:	48 83 c4 38          	add    $0x38,%rsp
  401cbf:	5b                   	pop    %rbx
  401cc0:	5d                   	pop    %rbp
  401cc1:	c3                   	retq   

0000000000401cc2 <DebugPrintCommands>:
  401cc2:	55                   	push   %rbp
  401cc3:	48 89 e5             	mov    %rsp,%rbp
  401cc6:	48 89 7d e8          	mov    %rdi,-0x18(%rbp)
  401cca:	c7 45 f8 00 00 00 00 	movl   $0x0,-0x8(%rbp)
  401cd1:	eb 5d                	jmp    401d30 <DebugPrintCommands+0x6e>
  401cd3:	c7 45 fc 00 00 00 00 	movl   $0x0,-0x4(%rbp)
  401cda:	eb 04                	jmp    401ce0 <DebugPrintCommands+0x1e>
  401cdc:	83 45 fc 01          	addl   $0x1,-0x4(%rbp)
  401ce0:	48 8b 45 e8          	mov    -0x18(%rbp),%rax
  401ce4:	48 8b 48 08          	mov    0x8(%rax),%rcx
  401ce8:	8b 45 f8             	mov    -0x8(%rbp),%eax
  401ceb:	48 63 d0             	movslq %eax,%rdx
  401cee:	48 89 d0             	mov    %rdx,%rax
  401cf1:	48 01 c0             	add    %rax,%rax
  401cf4:	48 01 d0             	add    %rdx,%rax
  401cf7:	48 c1 e0 04          	shl    $0x4,%rax
  401cfb:	48 01 c8             	add    %rcx,%rax
  401cfe:	8b 40 10             	mov    0x10(%rax),%eax
  401d01:	3b 45 fc             	cmp    -0x4(%rbp),%eax
  401d04:	7f d6                	jg     401cdc <DebugPrintCommands+0x1a>
  401d06:	8b 45 f8             	mov    -0x8(%rbp),%eax
  401d09:	48 63 d0             	movslq %eax,%rdx
  401d0c:	48 89 d0             	mov    %rdx,%rax
  401d0f:	48 01 c0             	add    %rax,%rax
  401d12:	48 01 d0             	add    %rdx,%rax
  401d15:	48 c1 e0 04          	shl    $0x4,%rax
  401d19:	8b 45 f8             	mov    -0x8(%rbp),%eax
  401d1c:	48 63 d0             	movslq %eax,%rdx
  401d1f:	48 89 d0             	mov    %rdx,%rax
  401d22:	48 01 c0             	add    %rax,%rax
  401d25:	48 01 d0             	add    %rdx,%rax
  401d28:	48 c1 e0 04          	shl    $0x4,%rax
  401d2c:	83 45 f8 01          	addl   $0x1,-0x8(%rbp)
  401d30:	48 8b 45 e8          	mov    -0x18(%rbp),%rax
  401d34:	8b 40 10             	mov    0x10(%rax),%eax
  401d37:	3b 45 f8             	cmp    -0x8(%rbp),%eax
  401d3a:	7f 97                	jg     401cd3 <DebugPrintCommands+0x11>
  401d3c:	90                   	nop
  401d3d:	5d                   	pop    %rbp
  401d3e:	c3                   	retq   

0000000000401d3f <SetRedirs>:
  401d3f:	55                   	push   %rbp
  401d40:	48 89 e5             	mov    %rsp,%rbp
  401d43:	48 83 ec 30          	sub    $0x30,%rsp
  401d47:	48 89 7d e8          	mov    %rdi,-0x18(%rbp)
  401d4b:	48 89 75 e0          	mov    %rsi,-0x20(%rbp)
  401d4f:	89 55 dc             	mov    %edx,-0x24(%rbp)
  401d52:	48 8b 45 e8          	mov    -0x18(%rbp),%rax
  401d56:	48 8b 48 08          	mov    0x8(%rax),%rcx
  401d5a:	8b 45 dc             	mov    -0x24(%rbp),%eax
  401d5d:	48 63 d0             	movslq %eax,%rdx
  401d60:	48 89 d0             	mov    %rdx,%rax
  401d63:	48 01 c0             	add    %rax,%rax
  401d66:	48 01 d0             	add    %rdx,%rax
  401d69:	48 c1 e0 04          	shl    $0x4,%rax
  401d6d:	48 01 c8             	add    %rcx,%rax
  401d70:	8b 40 14             	mov    0x14(%rax),%eax
  401d73:	85 c0                	test   %eax,%eax
  401d75:	0f 84 e0 00 00 00    	je     401e5b <SetRedirs+0x11c>
  401d7b:	48 8b 45 e8          	mov    -0x18(%rbp),%rax
  401d7f:	48 8b 48 08          	mov    0x8(%rax),%rcx
  401d83:	8b 45 dc             	mov    -0x24(%rbp),%eax
  401d86:	48 63 d0             	movslq %eax,%rdx
  401d89:	48 89 d0             	mov    %rdx,%rax
  401d8c:	48 01 c0             	add    %rax,%rax
  401d8f:	48 01 d0             	add    %rdx,%rax
  401d92:	48 c1 e0 04          	shl    $0x4,%rax
  401d96:	48 01 c8             	add    %rcx,%rax
  401d99:	48 8b 40 20          	mov    0x20(%rax),%rax
  401d9d:	ba b0 01 00 00       	mov    $0x1b0,%edx
  401da2:	be 41 00 00 00       	mov    $0x41,%esi
  401da7:	48 89 c7             	mov    %rax,%rdi
  401daa:	b8 00 00 00 00       	mov    $0x0,%eax
  401daf:	e8 cc ec ff ff       	callq  400a80 <open@plt>
  401db4:	89 45 f8             	mov    %eax,-0x8(%rbp)
  401db7:	83 7d f8 00          	cmpl   $0x0,-0x8(%rbp)
  401dbb:	0f 89 81 00 00 00    	jns    401e42 <SetRedirs+0x103>
  401dc1:	48 8b 45 e0          	mov    -0x20(%rbp),%rax
  401dc5:	c7 00 01 00 00 00    	movl   $0x1,(%rax)
  401dcb:	48 8b 45 e0          	mov    -0x20(%rbp),%rax
  401dcf:	c7 40 04 91 01 00 00 	movl   $0x191,0x4(%rax)
  401dd6:	48 8b 45 e0          	mov    -0x20(%rbp),%rax
  401dda:	48 be 45 72 72 6f 72 	movabs $0x657220726f727245,%rsi
  401de1:	20 72 65 
  401de4:	48 89 70 08          	mov    %rsi,0x8(%rax)
  401de8:	48 be 64 69 72 65 63 	movabs $0x6e69746365726964,%rsi
  401def:	74 69 6e 
  401df2:	48 89 70 10          	mov    %rsi,0x10(%rax)
  401df6:	48 bf 67 20 74 6f 20 	movabs $0x6c6966206f742067,%rdi
  401dfd:	66 69 6c 
  401e00:	48 89 78 18          	mov    %rdi,0x18(%rax)
  401e04:	48 c7 40 20 65 2e 00 	movq   $0x2e65,0x20(%rax)
  401e0b:	00 
  401e0c:	48 c7 40 28 00 00 00 	movq   $0x0,0x28(%rax)
  401e13:	00 
  401e14:	48 c7 40 30 00 00 00 	movq   $0x0,0x30(%rax)
  401e1b:	00 
  401e1c:	48 c7 40 38 00 00 00 	movq   $0x0,0x38(%rax)
  401e23:	00 
  401e24:	48 c7 40 40 00 00 00 	movq   $0x0,0x40(%rax)
  401e2b:	00 
  401e2c:	48 8b 45 e0          	mov    -0x20(%rbp),%rax
  401e30:	c7 40 48 00 00 00 00 	movl   $0x0,0x48(%rax)
  401e37:	48 8b 45 e0          	mov    -0x20(%rbp),%rax
  401e3b:	c7 40 4c 00 00 00 00 	movl   $0x0,0x4c(%rax)
  401e42:	8b 45 f8             	mov    -0x8(%rbp),%eax
  401e45:	be 01 00 00 00       	mov    $0x1,%esi
  401e4a:	89 c7                	mov    %eax,%edi
  401e4c:	e8 5f eb ff ff       	callq  4009b0 <dup2@plt>
  401e51:	8b 45 f8             	mov    -0x8(%rbp),%eax
  401e54:	89 c7                	mov    %eax,%edi
  401e56:	e8 85 eb ff ff       	callq  4009e0 <close@plt>
  401e5b:	48 8b 45 e8          	mov    -0x18(%rbp),%rax
  401e5f:	48 8b 48 08          	mov    0x8(%rax),%rcx
  401e63:	8b 45 dc             	mov    -0x24(%rbp),%eax
  401e66:	48 63 d0             	movslq %eax,%rdx
  401e69:	48 89 d0             	mov    %rdx,%rax
  401e6c:	48 01 c0             	add    %rax,%rax
  401e6f:	48 01 d0             	add    %rdx,%rax
  401e72:	48 c1 e0 04          	shl    $0x4,%rax
  401e76:	48 01 c8             	add    %rcx,%rax
  401e79:	8b 40 18             	mov    0x18(%rax),%eax
  401e7c:	85 c0                	test   %eax,%eax
  401e7e:	0f 84 db 00 00 00    	je     401f5f <SetRedirs+0x220>
  401e84:	48 8b 45 e8          	mov    -0x18(%rbp),%rax
  401e88:	48 8b 48 08          	mov    0x8(%rax),%rcx
  401e8c:	8b 45 dc             	mov    -0x24(%rbp),%eax
  401e8f:	48 63 d0             	movslq %eax,%rdx
  401e92:	48 89 d0             	mov    %rdx,%rax
  401e95:	48 01 c0             	add    %rax,%rax
  401e98:	48 01 d0             	add    %rdx,%rax
  401e9b:	48 c1 e0 04          	shl    $0x4,%rax
  401e9f:	48 01 c8             	add    %rcx,%rax
  401ea2:	48 8b 40 28          	mov    0x28(%rax),%rax
  401ea6:	be 00 00 00 00       	mov    $0x0,%esi
  401eab:	48 89 c7             	mov    %rax,%rdi
  401eae:	b8 00 00 00 00       	mov    $0x0,%eax
  401eb3:	e8 c8 eb ff ff       	callq  400a80 <open@plt>
  401eb8:	89 45 fc             	mov    %eax,-0x4(%rbp)
  401ebb:	83 7d fc 00          	cmpl   $0x0,-0x4(%rbp)
  401ebf:	0f 89 81 00 00 00    	jns    401f46 <SetRedirs+0x207>
  401ec5:	48 8b 45 e0          	mov    -0x20(%rbp),%rax
  401ec9:	c7 00 01 00 00 00    	movl   $0x1,(%rax)
  401ecf:	48 8b 45 e0          	mov    -0x20(%rbp),%rax
  401ed3:	c7 40 04 91 01 00 00 	movl   $0x191,0x4(%rax)
  401eda:	48 8b 45 e0          	mov    -0x20(%rbp),%rax
  401ede:	48 b9 45 72 72 6f 72 	movabs $0x657220726f727245,%rcx
  401ee5:	20 72 65 
  401ee8:	48 89 48 08          	mov    %rcx,0x8(%rax)
  401eec:	48 be 64 69 72 65 63 	movabs $0x6e69746365726964,%rsi
  401ef3:	74 69 6e 
  401ef6:	48 89 70 10          	mov    %rsi,0x10(%rax)
  401efa:	48 bf 67 20 74 6f 20 	movabs $0x6c6966206f742067,%rdi
  401f01:	66 69 6c 
  401f04:	48 89 78 18          	mov    %rdi,0x18(%rax)
  401f08:	48 c7 40 20 65 2e 00 	movq   $0x2e65,0x20(%rax)
  401f0f:	00 
  401f10:	48 c7 40 28 00 00 00 	movq   $0x0,0x28(%rax)
  401f17:	00 
  401f18:	48 c7 40 30 00 00 00 	movq   $0x0,0x30(%rax)
  401f1f:	00 
  401f20:	48 c7 40 38 00 00 00 	movq   $0x0,0x38(%rax)
  401f27:	00 
  401f28:	48 c7 40 40 00 00 00 	movq   $0x0,0x40(%rax)
  401f2f:	00 
  401f30:	48 8b 45 e0          	mov    -0x20(%rbp),%rax
  401f34:	c7 40 48 00 00 00 00 	movl   $0x0,0x48(%rax)
  401f3b:	48 8b 45 e0          	mov    -0x20(%rbp),%rax
  401f3f:	c7 40 4c 00 00 00 00 	movl   $0x0,0x4c(%rax)
  401f46:	8b 45 fc             	mov    -0x4(%rbp),%eax
  401f49:	be 00 00 00 00       	mov    $0x0,%esi
  401f4e:	89 c7                	mov    %eax,%edi
  401f50:	e8 5b ea ff ff       	callq  4009b0 <dup2@plt>
  401f55:	8b 45 fc             	mov    -0x4(%rbp),%eax
  401f58:	89 c7                	mov    %eax,%edi
  401f5a:	e8 81 ea ff ff       	callq  4009e0 <close@plt>
  401f5f:	90                   	nop
  401f60:	c9                   	leaveq 
  401f61:	c3                   	retq   

0000000000401f62 <SetUpAndExecute>:
  401f62:	55                   	push   %rbp
  401f63:	48 89 e5             	mov    %rsp,%rbp
  401f66:	41 57                	push   %r15
  401f68:	41 56                	push   %r14
  401f6a:	41 55                	push   %r13
  401f6c:	41 54                	push   %r12
  401f6e:	53                   	push   %rbx
  401f6f:	48 83 ec 78          	sub    $0x78,%rsp
  401f73:	48 89 bd 78 ff ff ff 	mov    %rdi,-0x88(%rbp)
  401f7a:	48 89 b5 70 ff ff ff 	mov    %rsi,-0x90(%rbp)
  401f81:	89 95 6c ff ff ff    	mov    %edx,-0x94(%rbp)
  401f87:	89 8d 68 ff ff ff    	mov    %ecx,-0x98(%rbp)
  401f8d:	64 48 8b 04 25 28 00 	mov    %fs:0x28,%rax
  401f94:	00 00 
  401f96:	48 89 45 c8          	mov    %rax,-0x38(%rbp)
  401f9a:	31 c0                	xor    %eax,%eax
  401f9c:	83 bd 68 ff ff ff 00 	cmpl   $0x0,-0x98(%rbp)
  401fa3:	0f 84 33 07 00 00    	je     4026dc <SetUpAndExecute+0x77a>
  401fa9:	48 89 e0             	mov    %rsp,%rax
  401fac:	48 89 c3             	mov    %rax,%rbx
  401faf:	48 8b 85 78 ff ff ff 	mov    -0x88(%rbp),%rax
  401fb6:	8b 40 10             	mov    0x10(%rax),%eax
  401fb9:	48 63 d0             	movslq %eax,%rdx
  401fbc:	48 83 ea 01          	sub    $0x1,%rdx
  401fc0:	48 89 55 a8          	mov    %rdx,-0x58(%rbp)
  401fc4:	48 63 d0             	movslq %eax,%rdx
  401fc7:	49 89 d6             	mov    %rdx,%r14
  401fca:	41 bf 00 00 00 00    	mov    $0x0,%r15d
  401fd0:	48 63 d0             	movslq %eax,%rdx
  401fd3:	49 89 d4             	mov    %rdx,%r12
  401fd6:	41 bd 00 00 00 00    	mov    $0x0,%r13d
  401fdc:	48 98                	cltq   
  401fde:	48 c1 e0 02          	shl    $0x2,%rax
  401fe2:	48 8d 50 03          	lea    0x3(%rax),%rdx
  401fe6:	b8 10 00 00 00       	mov    $0x10,%eax
  401feb:	48 83 e8 01          	sub    $0x1,%rax
  401fef:	48 01 d0             	add    %rdx,%rax
  401ff2:	b9 10 00 00 00       	mov    $0x10,%ecx
  401ff7:	ba 00 00 00 00       	mov    $0x0,%edx
  401ffc:	48 f7 f1             	div    %rcx
  401fff:	48 6b c0 10          	imul   $0x10,%rax,%rax
  402003:	48 29 c4             	sub    %rax,%rsp
  402006:	48 89 e0             	mov    %rsp,%rax
  402009:	48 83 c0 03          	add    $0x3,%rax
  40200d:	48 c1 e8 02          	shr    $0x2,%rax
  402011:	48 c1 e0 02          	shl    $0x2,%rax
  402015:	48 89 45 b0          	mov    %rax,-0x50(%rbp)
  402019:	48 8b 85 78 ff ff ff 	mov    -0x88(%rbp),%rax
  402020:	8b 40 10             	mov    0x10(%rax),%eax
  402023:	83 e8 01             	sub    $0x1,%eax
  402026:	48 63 d0             	movslq %eax,%rdx
  402029:	48 83 ea 01          	sub    $0x1,%rdx
  40202d:	48 89 55 b8          	mov    %rdx,-0x48(%rbp)
  402031:	48 63 d0             	movslq %eax,%rdx
  402034:	49 89 d2             	mov    %rdx,%r10
  402037:	41 bb 00 00 00 00    	mov    $0x0,%r11d
  40203d:	48 63 d0             	movslq %eax,%rdx
  402040:	49 89 d0             	mov    %rdx,%r8
  402043:	41 b9 00 00 00 00    	mov    $0x0,%r9d
  402049:	48 98                	cltq   
  40204b:	48 c1 e0 03          	shl    $0x3,%rax
  40204f:	48 8d 50 03          	lea    0x3(%rax),%rdx
  402053:	b8 10 00 00 00       	mov    $0x10,%eax
  402058:	48 83 e8 01          	sub    $0x1,%rax
  40205c:	48 01 d0             	add    %rdx,%rax
  40205f:	bf 10 00 00 00       	mov    $0x10,%edi
  402064:	ba 00 00 00 00       	mov    $0x0,%edx
  402069:	48 f7 f7             	div    %rdi
  40206c:	48 6b c0 10          	imul   $0x10,%rax,%rax
  402070:	48 29 c4             	sub    %rax,%rsp
  402073:	48 89 e0             	mov    %rsp,%rax
  402076:	48 83 c0 03          	add    $0x3,%rax
  40207a:	48 c1 e8 02          	shr    $0x2,%rax
  40207e:	48 c1 e0 02          	shl    $0x2,%rax
  402082:	48 89 45 c0          	mov    %rax,-0x40(%rbp)
  402086:	c7 45 88 00 00 00 00 	movl   $0x0,-0x78(%rbp)
  40208d:	e9 cf 00 00 00       	jmpq   402161 <SetUpAndExecute+0x1ff>
  402092:	8b 45 88             	mov    -0x78(%rbp),%eax
  402095:	48 98                	cltq   
  402097:	48 8d 14 c5 00 00 00 	lea    0x0(,%rax,8),%rdx
  40209e:	00 
  40209f:	48 8b 45 c0          	mov    -0x40(%rbp),%rax
  4020a3:	48 01 d0             	add    %rdx,%rax
  4020a6:	48 89 c7             	mov    %rax,%rdi
  4020a9:	e8 42 e9 ff ff       	callq  4009f0 <pipe@plt>
  4020ae:	89 45 98             	mov    %eax,-0x68(%rbp)
  4020b1:	83 7d 98 00          	cmpl   $0x0,-0x68(%rbp)
  4020b5:	0f 84 a2 00 00 00    	je     40215d <SetUpAndExecute+0x1fb>
  4020bb:	48 8b 85 70 ff ff ff 	mov    -0x90(%rbp),%rax
  4020c2:	c7 00 01 00 00 00    	movl   $0x1,(%rax)
  4020c8:	48 8b 85 70 ff ff ff 	mov    -0x90(%rbp),%rax
  4020cf:	c7 40 04 59 02 00 00 	movl   $0x259,0x4(%rax)
  4020d6:	48 8b 85 70 ff ff ff 	mov    -0x90(%rbp),%rax
  4020dd:	48 be 50 69 70 69 6e 	movabs $0x6520676e69706950,%rsi
  4020e4:	67 20 65 
  4020e7:	48 89 70 08          	mov    %rsi,0x8(%rax)
  4020eb:	48 be 72 72 6f 72 2e 	movabs $0x2e726f7272,%rsi
  4020f2:	00 00 00 
  4020f5:	48 89 70 10          	mov    %rsi,0x10(%rax)
  4020f9:	48 83 c0 18          	add    $0x18,%rax
  4020fd:	b9 30 00 00 00       	mov    $0x30,%ecx
  402102:	be 00 00 00 00       	mov    $0x0,%esi
  402107:	48 89 30             	mov    %rsi,(%rax)
  40210a:	89 ca                	mov    %ecx,%edx
  40210c:	48 01 c2             	add    %rax,%rdx
  40210f:	48 83 c2 08          	add    $0x8,%rdx
  402113:	48 89 72 f0          	mov    %rsi,-0x10(%rdx)
  402117:	48 8d 50 08          	lea    0x8(%rax),%rdx
  40211b:	48 83 e2 f8          	and    $0xfffffffffffffff8,%rdx
  40211f:	48 29 d0             	sub    %rdx,%rax
  402122:	01 c1                	add    %eax,%ecx
  402124:	83 e1 f8             	and    $0xfffffff8,%ecx
  402127:	89 c8                	mov    %ecx,%eax
  402129:	c1 e8 03             	shr    $0x3,%eax
  40212c:	89 c1                	mov    %eax,%ecx
  40212e:	48 89 d7             	mov    %rdx,%rdi
  402131:	48 89 f0             	mov    %rsi,%rax
  402134:	f3 48 ab             	rep stos %rax,%es:(%rdi)
  402137:	48 8b 85 70 ff ff ff 	mov    -0x90(%rbp),%rax
  40213e:	c7 40 48 00 00 00 00 	movl   $0x0,0x48(%rax)
  402145:	48 8b 85 70 ff ff ff 	mov    -0x90(%rbp),%rax
  40214c:	c7 40 4c 00 00 00 00 	movl   $0x0,0x4c(%rax)
  402153:	b8 00 00 00 00       	mov    $0x0,%eax
  402158:	e9 77 05 00 00       	jmpq   4026d4 <SetUpAndExecute+0x772>
  40215d:	83 45 88 01          	addl   $0x1,-0x78(%rbp)
  402161:	48 8b 85 78 ff ff ff 	mov    -0x88(%rbp),%rax
  402168:	8b 40 10             	mov    0x10(%rax),%eax
  40216b:	83 e8 01             	sub    $0x1,%eax
  40216e:	3b 45 88             	cmp    -0x78(%rbp),%eax
  402171:	0f 8f 1b ff ff ff    	jg     402092 <SetUpAndExecute+0x130>
  402177:	c7 45 84 00 00 00 00 	movl   $0x0,-0x7c(%rbp)
  40217e:	e9 af 04 00 00       	jmpq   402632 <SetUpAndExecute+0x6d0>
  402183:	e8 38 e9 ff ff       	callq  400ac0 <fork@plt>
  402188:	89 c1                	mov    %eax,%ecx
  40218a:	48 8b 45 b0          	mov    -0x50(%rbp),%rax
  40218e:	8b 55 84             	mov    -0x7c(%rbp),%edx
  402191:	48 63 d2             	movslq %edx,%rdx
  402194:	89 0c 90             	mov    %ecx,(%rax,%rdx,4)
  402197:	48 8b 45 b0          	mov    -0x50(%rbp),%rax
  40219b:	8b 55 84             	mov    -0x7c(%rbp),%edx
  40219e:	48 63 d2             	movslq %edx,%rdx
  4021a1:	8b 04 90             	mov    (%rax,%rdx,4),%eax
  4021a4:	85 c0                	test   %eax,%eax
  4021a6:	0f 85 82 04 00 00    	jne    40262e <SetUpAndExecute+0x6cc>
  4021ac:	83 7d 84 00          	cmpl   $0x0,-0x7c(%rbp)
  4021b0:	0f 85 9f 01 00 00    	jne    402355 <SetUpAndExecute+0x3f3>
  4021b6:	48 8b 45 c0          	mov    -0x40(%rbp),%rax
  4021ba:	8b 55 84             	mov    -0x7c(%rbp),%edx
  4021bd:	48 63 d2             	movslq %edx,%rdx
  4021c0:	8b 44 d0 04          	mov    0x4(%rax,%rdx,8),%eax
  4021c4:	be 01 00 00 00       	mov    $0x1,%esi
  4021c9:	89 c7                	mov    %eax,%edi
  4021cb:	e8 e0 e7 ff ff       	callq  4009b0 <dup2@plt>
  4021d0:	48 8b 45 c0          	mov    -0x40(%rbp),%rax
  4021d4:	8b 55 84             	mov    -0x7c(%rbp),%edx
  4021d7:	48 63 d2             	movslq %edx,%rdx
  4021da:	8b 04 d0             	mov    (%rax,%rdx,8),%eax
  4021dd:	89 c7                	mov    %eax,%edi
  4021df:	e8 fc e7 ff ff       	callq  4009e0 <close@plt>
  4021e4:	c7 45 8c 00 00 00 00 	movl   $0x0,-0x74(%rbp)
  4021eb:	eb 38                	jmp    402225 <SetUpAndExecute+0x2c3>
  4021ed:	8b 45 8c             	mov    -0x74(%rbp),%eax
  4021f0:	3b 45 84             	cmp    -0x7c(%rbp),%eax
  4021f3:	74 2b                	je     402220 <SetUpAndExecute+0x2be>
  4021f5:	48 8b 45 c0          	mov    -0x40(%rbp),%rax
  4021f9:	8b 55 8c             	mov    -0x74(%rbp),%edx
  4021fc:	48 63 d2             	movslq %edx,%rdx
  4021ff:	8b 04 d0             	mov    (%rax,%rdx,8),%eax
  402202:	89 c7                	mov    %eax,%edi
  402204:	e8 d7 e7 ff ff       	callq  4009e0 <close@plt>
  402209:	48 8b 45 c0          	mov    -0x40(%rbp),%rax
  40220d:	8b 55 8c             	mov    -0x74(%rbp),%edx
  402210:	48 63 d2             	movslq %edx,%rdx
  402213:	8b 44 d0 04          	mov    0x4(%rax,%rdx,8),%eax
  402217:	89 c7                	mov    %eax,%edi
  402219:	e8 c2 e7 ff ff       	callq  4009e0 <close@plt>
  40221e:	eb 01                	jmp    402221 <SetUpAndExecute+0x2bf>
  402220:	90                   	nop
  402221:	83 45 8c 01          	addl   $0x1,-0x74(%rbp)
  402225:	48 8b 85 78 ff ff ff 	mov    -0x88(%rbp),%rax
  40222c:	8b 40 10             	mov    0x10(%rax),%eax
  40222f:	83 e8 01             	sub    $0x1,%eax
  402232:	3b 45 8c             	cmp    -0x74(%rbp),%eax
  402235:	7f b6                	jg     4021ed <SetUpAndExecute+0x28b>
  402237:	48 8b 85 78 ff ff ff 	mov    -0x88(%rbp),%rax
  40223e:	48 8b 48 08          	mov    0x8(%rax),%rcx
  402242:	8b 45 84             	mov    -0x7c(%rbp),%eax
  402245:	48 63 d0             	movslq %eax,%rdx
  402248:	48 89 d0             	mov    %rdx,%rax
  40224b:	48 01 c0             	add    %rax,%rax
  40224e:	48 01 d0             	add    %rdx,%rax
  402251:	48 c1 e0 04          	shl    $0x4,%rax
  402255:	48 01 c8             	add    %rcx,%rax
  402258:	8b 40 18             	mov    0x18(%rax),%eax
  40225b:	85 c0                	test   %eax,%eax
  40225d:	0f 84 73 03 00 00    	je     4025d6 <SetUpAndExecute+0x674>
  402263:	48 8b 85 78 ff ff ff 	mov    -0x88(%rbp),%rax
  40226a:	48 8b 48 08          	mov    0x8(%rax),%rcx
  40226e:	8b 45 84             	mov    -0x7c(%rbp),%eax
  402271:	48 63 d0             	movslq %eax,%rdx
  402274:	48 89 d0             	mov    %rdx,%rax
  402277:	48 01 c0             	add    %rax,%rax
  40227a:	48 01 d0             	add    %rdx,%rax
  40227d:	48 c1 e0 04          	shl    $0x4,%rax
  402281:	48 01 c8             	add    %rcx,%rax
  402284:	48 8b 40 28          	mov    0x28(%rax),%rax
  402288:	be 00 00 00 00       	mov    $0x0,%esi
  40228d:	48 89 c7             	mov    %rax,%rdi
  402290:	b8 00 00 00 00       	mov    $0x0,%eax
  402295:	e8 e6 e7 ff ff       	callq  400a80 <open@plt>
  40229a:	89 45 9c             	mov    %eax,-0x64(%rbp)
  40229d:	83 7d 9c 00          	cmpl   $0x0,-0x64(%rbp)
  4022a1:	0f 89 90 00 00 00    	jns    402337 <SetUpAndExecute+0x3d5>
  4022a7:	48 8b 85 70 ff ff ff 	mov    -0x90(%rbp),%rax
  4022ae:	c7 00 01 00 00 00    	movl   $0x1,(%rax)
  4022b4:	48 8b 85 70 ff ff ff 	mov    -0x90(%rbp),%rax
  4022bb:	c7 40 04 91 01 00 00 	movl   $0x191,0x4(%rax)
  4022c2:	48 8b 85 70 ff ff ff 	mov    -0x90(%rbp),%rax
  4022c9:	48 be 45 72 72 6f 72 	movabs $0x657220726f727245,%rsi
  4022d0:	20 72 65 
  4022d3:	48 89 70 08          	mov    %rsi,0x8(%rax)
  4022d7:	48 be 64 69 72 65 63 	movabs $0x6e69746365726964,%rsi
  4022de:	74 69 6e 
  4022e1:	48 89 70 10          	mov    %rsi,0x10(%rax)
  4022e5:	48 b9 67 20 74 6f 20 	movabs $0x6c6966206f742067,%rcx
  4022ec:	66 69 6c 
  4022ef:	48 89 48 18          	mov    %rcx,0x18(%rax)
  4022f3:	48 c7 40 20 65 2e 00 	movq   $0x2e65,0x20(%rax)
  4022fa:	00 
  4022fb:	48 c7 40 28 00 00 00 	movq   $0x0,0x28(%rax)
  402302:	00 
  402303:	48 c7 40 30 00 00 00 	movq   $0x0,0x30(%rax)
  40230a:	00 
  40230b:	48 c7 40 38 00 00 00 	movq   $0x0,0x38(%rax)
  402312:	00 
  402313:	48 c7 40 40 00 00 00 	movq   $0x0,0x40(%rax)
  40231a:	00 
  40231b:	48 8b 85 70 ff ff ff 	mov    -0x90(%rbp),%rax
  402322:	c7 40 48 00 00 00 00 	movl   $0x0,0x48(%rax)
  402329:	48 8b 85 70 ff ff ff 	mov    -0x90(%rbp),%rax
  402330:	c7 40 4c 00 00 00 00 	movl   $0x0,0x4c(%rax)
  402337:	8b 45 9c             	mov    -0x64(%rbp),%eax
  40233a:	be 00 00 00 00       	mov    $0x0,%esi
  40233f:	89 c7                	mov    %eax,%edi
  402341:	e8 6a e6 ff ff       	callq  4009b0 <dup2@plt>
  402346:	8b 45 9c             	mov    -0x64(%rbp),%eax
  402349:	89 c7                	mov    %eax,%edi
  40234b:	e8 90 e6 ff ff       	callq  4009e0 <close@plt>
  402350:	e9 81 02 00 00       	jmpq   4025d6 <SetUpAndExecute+0x674>
  402355:	48 8b 85 78 ff ff ff 	mov    -0x88(%rbp),%rax
  40235c:	8b 40 10             	mov    0x10(%rax),%eax
  40235f:	83 e8 01             	sub    $0x1,%eax
  402362:	3b 45 84             	cmp    -0x7c(%rbp),%eax
  402365:	0f 85 ad 01 00 00    	jne    402518 <SetUpAndExecute+0x5b6>
  40236b:	8b 45 84             	mov    -0x7c(%rbp),%eax
  40236e:	8d 50 ff             	lea    -0x1(%rax),%edx
  402371:	48 8b 45 c0          	mov    -0x40(%rbp),%rax
  402375:	48 63 d2             	movslq %edx,%rdx
  402378:	8b 04 d0             	mov    (%rax,%rdx,8),%eax
  40237b:	be 00 00 00 00       	mov    $0x0,%esi
  402380:	89 c7                	mov    %eax,%edi
  402382:	e8 29 e6 ff ff       	callq  4009b0 <dup2@plt>
  402387:	8b 45 84             	mov    -0x7c(%rbp),%eax
  40238a:	8d 50 ff             	lea    -0x1(%rax),%edx
  40238d:	48 8b 45 c0          	mov    -0x40(%rbp),%rax
  402391:	48 63 d2             	movslq %edx,%rdx
  402394:	8b 44 d0 04          	mov    0x4(%rax,%rdx,8),%eax
  402398:	89 c7                	mov    %eax,%edi
  40239a:	e8 41 e6 ff ff       	callq  4009e0 <close@plt>
  40239f:	c7 45 90 00 00 00 00 	movl   $0x0,-0x70(%rbp)
  4023a6:	eb 3b                	jmp    4023e3 <SetUpAndExecute+0x481>
  4023a8:	8b 45 84             	mov    -0x7c(%rbp),%eax
  4023ab:	83 e8 01             	sub    $0x1,%eax
  4023ae:	3b 45 90             	cmp    -0x70(%rbp),%eax
  4023b1:	74 2b                	je     4023de <SetUpAndExecute+0x47c>
  4023b3:	48 8b 45 c0          	mov    -0x40(%rbp),%rax
  4023b7:	8b 55 90             	mov    -0x70(%rbp),%edx
  4023ba:	48 63 d2             	movslq %edx,%rdx
  4023bd:	8b 04 d0             	mov    (%rax,%rdx,8),%eax
  4023c0:	89 c7                	mov    %eax,%edi
  4023c2:	e8 19 e6 ff ff       	callq  4009e0 <close@plt>
  4023c7:	48 8b 45 c0          	mov    -0x40(%rbp),%rax
  4023cb:	8b 55 90             	mov    -0x70(%rbp),%edx
  4023ce:	48 63 d2             	movslq %edx,%rdx
  4023d1:	8b 44 d0 04          	mov    0x4(%rax,%rdx,8),%eax
  4023d5:	89 c7                	mov    %eax,%edi
  4023d7:	e8 04 e6 ff ff       	callq  4009e0 <close@plt>
  4023dc:	eb 01                	jmp    4023df <SetUpAndExecute+0x47d>
  4023de:	90                   	nop
  4023df:	83 45 90 01          	addl   $0x1,-0x70(%rbp)
  4023e3:	48 8b 85 78 ff ff ff 	mov    -0x88(%rbp),%rax
  4023ea:	8b 40 10             	mov    0x10(%rax),%eax
  4023ed:	83 e8 01             	sub    $0x1,%eax
  4023f0:	3b 45 90             	cmp    -0x70(%rbp),%eax
  4023f3:	7f b3                	jg     4023a8 <SetUpAndExecute+0x446>
  4023f5:	48 8b 85 78 ff ff ff 	mov    -0x88(%rbp),%rax
  4023fc:	48 8b 48 08          	mov    0x8(%rax),%rcx
  402400:	8b 45 84             	mov    -0x7c(%rbp),%eax
  402403:	48 63 d0             	movslq %eax,%rdx
  402406:	48 89 d0             	mov    %rdx,%rax
  402409:	48 01 c0             	add    %rax,%rax
  40240c:	48 01 d0             	add    %rdx,%rax
  40240f:	48 c1 e0 04          	shl    $0x4,%rax
  402413:	48 01 c8             	add    %rcx,%rax
  402416:	8b 40 14             	mov    0x14(%rax),%eax
  402419:	85 c0                	test   %eax,%eax
  40241b:	0f 84 b5 01 00 00    	je     4025d6 <SetUpAndExecute+0x674>
  402421:	48 8b 85 78 ff ff ff 	mov    -0x88(%rbp),%rax
  402428:	48 8b 48 08          	mov    0x8(%rax),%rcx
  40242c:	8b 45 84             	mov    -0x7c(%rbp),%eax
  40242f:	48 63 d0             	movslq %eax,%rdx
  402432:	48 89 d0             	mov    %rdx,%rax
  402435:	48 01 c0             	add    %rax,%rax
  402438:	48 01 d0             	add    %rdx,%rax
  40243b:	48 c1 e0 04          	shl    $0x4,%rax
  40243f:	48 01 c8             	add    %rcx,%rax
  402442:	48 8b 40 20          	mov    0x20(%rax),%rax
  402446:	ba b0 01 00 00       	mov    $0x1b0,%edx
  40244b:	be 41 00 00 00       	mov    $0x41,%esi
  402450:	48 89 c7             	mov    %rax,%rdi
  402453:	b8 00 00 00 00       	mov    $0x0,%eax
  402458:	e8 23 e6 ff ff       	callq  400a80 <open@plt>
  40245d:	89 45 a0             	mov    %eax,-0x60(%rbp)
  402460:	83 7d a0 00          	cmpl   $0x0,-0x60(%rbp)
  402464:	0f 89 90 00 00 00    	jns    4024fa <SetUpAndExecute+0x598>
  40246a:	48 8b 85 70 ff ff ff 	mov    -0x90(%rbp),%rax
  402471:	c7 00 01 00 00 00    	movl   $0x1,(%rax)
  402477:	48 8b 85 70 ff ff ff 	mov    -0x90(%rbp),%rax
  40247e:	c7 40 04 91 01 00 00 	movl   $0x191,0x4(%rax)
  402485:	48 8b 85 70 ff ff ff 	mov    -0x90(%rbp),%rax
  40248c:	48 be 45 72 72 6f 72 	movabs $0x657220726f727245,%rsi
  402493:	20 72 65 
  402496:	48 89 70 08          	mov    %rsi,0x8(%rax)
  40249a:	48 b9 64 69 72 65 63 	movabs $0x6e69746365726964,%rcx
  4024a1:	74 69 6e 
  4024a4:	48 89 48 10          	mov    %rcx,0x10(%rax)
  4024a8:	48 be 67 20 74 6f 20 	movabs $0x6c6966206f742067,%rsi
  4024af:	66 69 6c 
  4024b2:	48 89 70 18          	mov    %rsi,0x18(%rax)
  4024b6:	48 c7 40 20 65 2e 00 	movq   $0x2e65,0x20(%rax)
  4024bd:	00 
  4024be:	48 c7 40 28 00 00 00 	movq   $0x0,0x28(%rax)
  4024c5:	00 
  4024c6:	48 c7 40 30 00 00 00 	movq   $0x0,0x30(%rax)
  4024cd:	00 
  4024ce:	48 c7 40 38 00 00 00 	movq   $0x0,0x38(%rax)
  4024d5:	00 
  4024d6:	48 c7 40 40 00 00 00 	movq   $0x0,0x40(%rax)
  4024dd:	00 
  4024de:	48 8b 85 70 ff ff ff 	mov    -0x90(%rbp),%rax
  4024e5:	c7 40 48 00 00 00 00 	movl   $0x0,0x48(%rax)
  4024ec:	48 8b 85 70 ff ff ff 	mov    -0x90(%rbp),%rax
  4024f3:	c7 40 4c 00 00 00 00 	movl   $0x0,0x4c(%rax)
  4024fa:	8b 45 a0             	mov    -0x60(%rbp),%eax
  4024fd:	be 01 00 00 00       	mov    $0x1,%esi
  402502:	89 c7                	mov    %eax,%edi
  402504:	e8 a7 e4 ff ff       	callq  4009b0 <dup2@plt>
  402509:	8b 45 a0             	mov    -0x60(%rbp),%eax
  40250c:	89 c7                	mov    %eax,%edi
  40250e:	e8 cd e4 ff ff       	callq  4009e0 <close@plt>
  402513:	e9 be 00 00 00       	jmpq   4025d6 <SetUpAndExecute+0x674>
  402518:	48 8b 45 c0          	mov    -0x40(%rbp),%rax
  40251c:	8b 55 84             	mov    -0x7c(%rbp),%edx
  40251f:	48 63 d2             	movslq %edx,%rdx
  402522:	8b 44 d0 04          	mov    0x4(%rax,%rdx,8),%eax
  402526:	be 01 00 00 00       	mov    $0x1,%esi
  40252b:	89 c7                	mov    %eax,%edi
  40252d:	e8 7e e4 ff ff       	callq  4009b0 <dup2@plt>
  402532:	8b 45 84             	mov    -0x7c(%rbp),%eax
  402535:	8d 50 ff             	lea    -0x1(%rax),%edx
  402538:	48 8b 45 c0          	mov    -0x40(%rbp),%rax
  40253c:	48 63 d2             	movslq %edx,%rdx
  40253f:	8b 04 d0             	mov    (%rax,%rdx,8),%eax
  402542:	be 00 00 00 00       	mov    $0x0,%esi
  402547:	89 c7                	mov    %eax,%edi
  402549:	e8 62 e4 ff ff       	callq  4009b0 <dup2@plt>
  40254e:	c7 45 94 00 00 00 00 	movl   $0x0,-0x6c(%rbp)
  402555:	eb 6d                	jmp    4025c4 <SetUpAndExecute+0x662>
  402557:	8b 45 84             	mov    -0x7c(%rbp),%eax
  40255a:	83 e8 01             	sub    $0x1,%eax
  40255d:	3b 45 94             	cmp    -0x6c(%rbp),%eax
  402560:	75 17                	jne    402579 <SetUpAndExecute+0x617>
  402562:	48 8b 45 c0          	mov    -0x40(%rbp),%rax
  402566:	8b 55 94             	mov    -0x6c(%rbp),%edx
  402569:	48 63 d2             	movslq %edx,%rdx
  40256c:	8b 44 d0 04          	mov    0x4(%rax,%rdx,8),%eax
  402570:	89 c7                	mov    %eax,%edi
  402572:	e8 69 e4 ff ff       	callq  4009e0 <close@plt>
  402577:	eb 47                	jmp    4025c0 <SetUpAndExecute+0x65e>
  402579:	8b 45 94             	mov    -0x6c(%rbp),%eax
  40257c:	3b 45 84             	cmp    -0x7c(%rbp),%eax
  40257f:	75 16                	jne    402597 <SetUpAndExecute+0x635>
  402581:	48 8b 45 c0          	mov    -0x40(%rbp),%rax
  402585:	8b 55 94             	mov    -0x6c(%rbp),%edx
  402588:	48 63 d2             	movslq %edx,%rdx
  40258b:	8b 04 d0             	mov    (%rax,%rdx,8),%eax
  40258e:	89 c7                	mov    %eax,%edi
  402590:	e8 4b e4 ff ff       	callq  4009e0 <close@plt>
  402595:	eb 29                	jmp    4025c0 <SetUpAndExecute+0x65e>
  402597:	48 8b 45 c0          	mov    -0x40(%rbp),%rax
  40259b:	8b 55 94             	mov    -0x6c(%rbp),%edx
  40259e:	48 63 d2             	movslq %edx,%rdx
  4025a1:	8b 04 d0             	mov    (%rax,%rdx,8),%eax
  4025a4:	89 c7                	mov    %eax,%edi
  4025a6:	e8 35 e4 ff ff       	callq  4009e0 <close@plt>
  4025ab:	48 8b 45 c0          	mov    -0x40(%rbp),%rax
  4025af:	8b 55 94             	mov    -0x6c(%rbp),%edx
  4025b2:	48 63 d2             	movslq %edx,%rdx
  4025b5:	8b 44 d0 04          	mov    0x4(%rax,%rdx,8),%eax
  4025b9:	89 c7                	mov    %eax,%edi
  4025bb:	e8 20 e4 ff ff       	callq  4009e0 <close@plt>
  4025c0:	83 45 94 01          	addl   $0x1,-0x6c(%rbp)
  4025c4:	48 8b 85 78 ff ff ff 	mov    -0x88(%rbp),%rax
  4025cb:	8b 40 10             	mov    0x10(%rax),%eax
  4025ce:	83 e8 01             	sub    $0x1,%eax
  4025d1:	3b 45 94             	cmp    -0x6c(%rbp),%eax
  4025d4:	7f 81                	jg     402557 <SetUpAndExecute+0x5f5>
  4025d6:	48 8b 85 78 ff ff ff 	mov    -0x88(%rbp),%rax
  4025dd:	48 8b 48 08          	mov    0x8(%rax),%rcx
  4025e1:	8b 45 84             	mov    -0x7c(%rbp),%eax
  4025e4:	48 63 d0             	movslq %eax,%rdx
  4025e7:	48 89 d0             	mov    %rdx,%rax
  4025ea:	48 01 c0             	add    %rax,%rax
  4025ed:	48 01 d0             	add    %rdx,%rax
  4025f0:	48 c1 e0 04          	shl    $0x4,%rax
  4025f4:	48 01 c8             	add    %rcx,%rax
  4025f7:	48 8b 48 08          	mov    0x8(%rax),%rcx
  4025fb:	48 8b 85 78 ff ff ff 	mov    -0x88(%rbp),%rax
  402602:	48 8b 70 08          	mov    0x8(%rax),%rsi
  402606:	8b 45 84             	mov    -0x7c(%rbp),%eax
  402609:	48 63 d0             	movslq %eax,%rdx
  40260c:	48 89 d0             	mov    %rdx,%rax
  40260f:	48 01 c0             	add    %rax,%rax
  402612:	48 01 d0             	add    %rdx,%rax
  402615:	48 c1 e0 04          	shl    $0x4,%rax
  402619:	48 01 f0             	add    %rsi,%rax
  40261c:	48 8b 40 08          	mov    0x8(%rax),%rax
  402620:	48 8b 00             	mov    (%rax),%rax
  402623:	48 89 ce             	mov    %rcx,%rsi
  402626:	48 89 c7             	mov    %rax,%rdi
  402629:	e8 72 e4 ff ff       	callq  400aa0 <execvp@plt>
  40262e:	83 45 84 01          	addl   $0x1,-0x7c(%rbp)
  402632:	48 8b 85 78 ff ff ff 	mov    -0x88(%rbp),%rax
  402639:	8b 40 10             	mov    0x10(%rax),%eax
  40263c:	3b 45 84             	cmp    -0x7c(%rbp),%eax
  40263f:	0f 8f 3e fb ff ff    	jg     402183 <SetUpAndExecute+0x221>
  402645:	c7 45 88 00 00 00 00 	movl   $0x0,-0x78(%rbp)
  40264c:	eb 33                	jmp    402681 <SetUpAndExecute+0x71f>
  40264e:	48 8b 45 c0          	mov    -0x40(%rbp),%rax
  402652:	8b 55 88             	mov    -0x78(%rbp),%edx
  402655:	48 63 d2             	movslq %edx,%rdx
  402658:	8b 04 d0             	mov    (%rax,%rdx,8),%eax
  40265b:	89 c7                	mov    %eax,%edi
  40265d:	e8 7e e3 ff ff       	callq  4009e0 <close@plt>
  402662:	89 45 a4             	mov    %eax,-0x5c(%rbp)
  402665:	48 8b 45 c0          	mov    -0x40(%rbp),%rax
  402669:	8b 55 88             	mov    -0x78(%rbp),%edx
  40266c:	48 63 d2             	movslq %edx,%rdx
  40266f:	8b 44 d0 04          	mov    0x4(%rax,%rdx,8),%eax
  402673:	89 c7                	mov    %eax,%edi
  402675:	e8 66 e3 ff ff       	callq  4009e0 <close@plt>
  40267a:	89 45 a4             	mov    %eax,-0x5c(%rbp)
  40267d:	83 45 88 01          	addl   $0x1,-0x78(%rbp)
  402681:	48 8b 85 78 ff ff ff 	mov    -0x88(%rbp),%rax
  402688:	8b 40 10             	mov    0x10(%rax),%eax
  40268b:	83 e8 01             	sub    $0x1,%eax
  40268e:	3b 45 88             	cmp    -0x78(%rbp),%eax
  402691:	7f bb                	jg     40264e <SetUpAndExecute+0x6ec>
  402693:	c7 45 84 00 00 00 00 	movl   $0x0,-0x7c(%rbp)
  40269a:	eb 24                	jmp    4026c0 <SetUpAndExecute+0x75e>
  40269c:	48 8b 45 b0          	mov    -0x50(%rbp),%rax
  4026a0:	8b 55 84             	mov    -0x7c(%rbp),%edx
  4026a3:	48 63 d2             	movslq %edx,%rdx
  4026a6:	8b 04 90             	mov    (%rax,%rdx,4),%eax
  4026a9:	48 8d 4d 80          	lea    -0x80(%rbp),%rcx
  4026ad:	ba 00 00 00 00       	mov    $0x0,%edx
  4026b2:	48 89 ce             	mov    %rcx,%rsi
  4026b5:	89 c7                	mov    %eax,%edi
  4026b7:	e8 b4 e3 ff ff       	callq  400a70 <waitpid@plt>
  4026bc:	83 45 84 01          	addl   $0x1,-0x7c(%rbp)
  4026c0:	48 8b 85 78 ff ff ff 	mov    -0x88(%rbp),%rax
  4026c7:	8b 40 10             	mov    0x10(%rax),%eax
  4026ca:	3b 45 84             	cmp    -0x7c(%rbp),%eax
  4026cd:	7f cd                	jg     40269c <SetUpAndExecute+0x73a>
  4026cf:	b8 01 00 00 00       	mov    $0x1,%eax
  4026d4:	48 89 dc             	mov    %rbx,%rsp
  4026d7:	83 f8 01             	cmp    $0x1,%eax
  4026da:	eb 01                	jmp    4026dd <SetUpAndExecute+0x77b>
  4026dc:	90                   	nop
  4026dd:	48 8b 45 c8          	mov    -0x38(%rbp),%rax
  4026e1:	64 48 33 04 25 28 00 	xor    %fs:0x28,%rax
  4026e8:	00 00 
  4026ea:	74 05                	je     4026f1 <SetUpAndExecute+0x78f>
  4026ec:	e8 af e2 ff ff       	callq  4009a0 <__stack_chk_fail@plt>
  4026f1:	48 8d 65 d8          	lea    -0x28(%rbp),%rsp
  4026f5:	5b                   	pop    %rbx
  4026f6:	41 5c                	pop    %r12
  4026f8:	41 5d                	pop    %r13
  4026fa:	41 5e                	pop    %r14
  4026fc:	41 5f                	pop    %r15
  4026fe:	5d                   	pop    %rbp
  4026ff:	c3                   	retq   

0000000000402700 <CheckPipingRules>:
  402700:	55                   	push   %rbp
  402701:	48 89 e5             	mov    %rsp,%rbp
  402704:	48 89 7d e8          	mov    %rdi,-0x18(%rbp)
  402708:	48 89 75 e0          	mov    %rsi,-0x20(%rbp)
  40270c:	48 8b 45 e8          	mov    -0x18(%rbp),%rax
  402710:	8b 40 10             	mov    0x10(%rax),%eax
  402713:	83 f8 01             	cmp    $0x1,%eax
  402716:	0f 84 a0 02 00 00    	je     4029bc <CheckPipingRules+0x2bc>
  40271c:	c7 45 fc 00 00 00 00 	movl   $0x0,-0x4(%rbp)
  402723:	e9 84 02 00 00       	jmpq   4029ac <CheckPipingRules+0x2ac>
  402728:	83 7d fc 00          	cmpl   $0x0,-0x4(%rbp)
  40272c:	0f 85 c1 00 00 00    	jne    4027f3 <CheckPipingRules+0xf3>
  402732:	48 8b 45 e8          	mov    -0x18(%rbp),%rax
  402736:	48 8b 48 08          	mov    0x8(%rax),%rcx
  40273a:	8b 45 fc             	mov    -0x4(%rbp),%eax
  40273d:	48 63 d0             	movslq %eax,%rdx
  402740:	48 89 d0             	mov    %rdx,%rax
  402743:	48 01 c0             	add    %rax,%rax
  402746:	48 01 d0             	add    %rdx,%rax
  402749:	48 c1 e0 04          	shl    $0x4,%rax
  40274d:	48 01 c8             	add    %rcx,%rax
  402750:	8b 40 14             	mov    0x14(%rax),%eax
  402753:	85 c0                	test   %eax,%eax
  402755:	0f 84 4d 02 00 00    	je     4029a8 <CheckPipingRules+0x2a8>
  40275b:	48 8b 45 e0          	mov    -0x20(%rbp),%rax
  40275f:	c7 00 01 00 00 00    	movl   $0x1,(%rax)
  402765:	48 8b 45 e0          	mov    -0x20(%rbp),%rax
  402769:	c7 40 04 7a 00 00 00 	movl   $0x7a,0x4(%rax)
  402770:	48 8b 45 e0          	mov    -0x20(%rbp),%rax
  402774:	48 be 53 79 6e 74 61 	movabs $0x45207861746e7953,%rsi
  40277b:	78 20 45 
  40277e:	48 89 70 08          	mov    %rsi,0x8(%rax)
  402782:	48 bf 72 72 6f 72 20 	movabs $0x49202d20726f7272,%rdi
  402789:	2d 20 49 
  40278c:	48 89 78 10          	mov    %rdi,0x10(%rax)
  402790:	48 be 6c 6c 65 67 61 	movabs $0x50206c6167656c6c,%rsi
  402797:	6c 20 50 
  40279a:	48 89 70 18          	mov    %rsi,0x18(%rax)
  40279e:	48 bf 69 70 65 2f 52 	movabs $0x696465522f657069,%rdi
  4027a5:	65 64 69 
  4027a8:	48 89 78 20          	mov    %rdi,0x20(%rax)
  4027ac:	48 be 72 65 63 74 20 	movabs $0x6d6f432074636572,%rsi
  4027b3:	43 6f 6d 
  4027b6:	48 89 70 28          	mov    %rsi,0x28(%rax)
  4027ba:	48 bf 62 69 6e 61 74 	movabs $0x6e6f6974616e6962,%rdi
  4027c1:	69 6f 6e 
  4027c4:	48 89 78 30          	mov    %rdi,0x30(%rax)
  4027c8:	48 c7 40 38 2e 00 00 	movq   $0x2e,0x38(%rax)
  4027cf:	00 
  4027d0:	48 c7 40 40 00 00 00 	movq   $0x0,0x40(%rax)
  4027d7:	00 
  4027d8:	48 8b 45 e0          	mov    -0x20(%rbp),%rax
  4027dc:	c7 40 48 00 00 00 00 	movl   $0x0,0x48(%rax)
  4027e3:	48 8b 45 e0          	mov    -0x20(%rbp),%rax
  4027e7:	c7 40 4c 00 00 00 00 	movl   $0x0,0x4c(%rax)
  4027ee:	e9 b5 01 00 00       	jmpq   4029a8 <CheckPipingRules+0x2a8>
  4027f3:	48 8b 45 e8          	mov    -0x18(%rbp),%rax
  4027f7:	8b 40 10             	mov    0x10(%rax),%eax
  4027fa:	83 e8 01             	sub    $0x1,%eax
  4027fd:	3b 45 fc             	cmp    -0x4(%rbp),%eax
  402800:	0f 85 c1 00 00 00    	jne    4028c7 <CheckPipingRules+0x1c7>
  402806:	48 8b 45 e8          	mov    -0x18(%rbp),%rax
  40280a:	48 8b 48 08          	mov    0x8(%rax),%rcx
  40280e:	8b 45 fc             	mov    -0x4(%rbp),%eax
  402811:	48 63 d0             	movslq %eax,%rdx
  402814:	48 89 d0             	mov    %rdx,%rax
  402817:	48 01 c0             	add    %rax,%rax
  40281a:	48 01 d0             	add    %rdx,%rax
  40281d:	48 c1 e0 04          	shl    $0x4,%rax
  402821:	48 01 c8             	add    %rcx,%rax
  402824:	8b 40 18             	mov    0x18(%rax),%eax
  402827:	85 c0                	test   %eax,%eax
  402829:	0f 84 79 01 00 00    	je     4029a8 <CheckPipingRules+0x2a8>
  40282f:	48 8b 45 e0          	mov    -0x20(%rbp),%rax
  402833:	c7 00 01 00 00 00    	movl   $0x1,(%rax)
  402839:	48 8b 45 e0          	mov    -0x20(%rbp),%rax
  40283d:	c7 40 04 7a 00 00 00 	movl   $0x7a,0x4(%rax)
  402844:	48 8b 45 e0          	mov    -0x20(%rbp),%rax
  402848:	48 be 53 79 6e 74 61 	movabs $0x45207861746e7953,%rsi
  40284f:	78 20 45 
  402852:	48 89 70 08          	mov    %rsi,0x8(%rax)
  402856:	48 bf 72 72 6f 72 20 	movabs $0x49202d20726f7272,%rdi
  40285d:	2d 20 49 
  402860:	48 89 78 10          	mov    %rdi,0x10(%rax)
  402864:	48 b9 6c 6c 65 67 61 	movabs $0x50206c6167656c6c,%rcx
  40286b:	6c 20 50 
  40286e:	48 89 48 18          	mov    %rcx,0x18(%rax)
  402872:	48 be 69 70 65 2f 52 	movabs $0x696465522f657069,%rsi
  402879:	65 64 69 
  40287c:	48 89 70 20          	mov    %rsi,0x20(%rax)
  402880:	48 bf 72 65 63 74 20 	movabs $0x6d6f432074636572,%rdi
  402887:	43 6f 6d 
  40288a:	48 89 78 28          	mov    %rdi,0x28(%rax)
  40288e:	48 b9 62 69 6e 61 74 	movabs $0x6e6f6974616e6962,%rcx
  402895:	69 6f 6e 
  402898:	48 89 48 30          	mov    %rcx,0x30(%rax)
  40289c:	48 c7 40 38 2e 00 00 	movq   $0x2e,0x38(%rax)
  4028a3:	00 
  4028a4:	48 c7 40 40 00 00 00 	movq   $0x0,0x40(%rax)
  4028ab:	00 
  4028ac:	48 8b 45 e0          	mov    -0x20(%rbp),%rax
  4028b0:	c7 40 48 00 00 00 00 	movl   $0x0,0x48(%rax)
  4028b7:	48 8b 45 e0          	mov    -0x20(%rbp),%rax
  4028bb:	c7 40 4c 00 00 00 00 	movl   $0x0,0x4c(%rax)
  4028c2:	e9 e1 00 00 00       	jmpq   4029a8 <CheckPipingRules+0x2a8>
  4028c7:	48 8b 45 e8          	mov    -0x18(%rbp),%rax
  4028cb:	48 8b 48 08          	mov    0x8(%rax),%rcx
  4028cf:	8b 45 fc             	mov    -0x4(%rbp),%eax
  4028d2:	48 63 d0             	movslq %eax,%rdx
  4028d5:	48 89 d0             	mov    %rdx,%rax
  4028d8:	48 01 c0             	add    %rax,%rax
  4028db:	48 01 d0             	add    %rdx,%rax
  4028de:	48 c1 e0 04          	shl    $0x4,%rax
  4028e2:	48 01 c8             	add    %rcx,%rax
  4028e5:	8b 40 18             	mov    0x18(%rax),%eax
  4028e8:	85 c0                	test   %eax,%eax
  4028ea:	75 29                	jne    402915 <CheckPipingRules+0x215>
  4028ec:	48 8b 45 e8          	mov    -0x18(%rbp),%rax
  4028f0:	48 8b 48 08          	mov    0x8(%rax),%rcx
  4028f4:	8b 45 fc             	mov    -0x4(%rbp),%eax
  4028f7:	48 63 d0             	movslq %eax,%rdx
  4028fa:	48 89 d0             	mov    %rdx,%rax
  4028fd:	48 01 c0             	add    %rax,%rax
  402900:	48 01 d0             	add    %rdx,%rax
  402903:	48 c1 e0 04          	shl    $0x4,%rax
  402907:	48 01 c8             	add    %rcx,%rax
  40290a:	8b 40 14             	mov    0x14(%rax),%eax
  40290d:	85 c0                	test   %eax,%eax
  40290f:	0f 84 93 00 00 00    	je     4029a8 <CheckPipingRules+0x2a8>
  402915:	48 8b 45 e0          	mov    -0x20(%rbp),%rax
  402919:	c7 00 01 00 00 00    	movl   $0x1,(%rax)
  40291f:	48 8b 45 e0          	mov    -0x20(%rbp),%rax
  402923:	c7 40 04 7a 00 00 00 	movl   $0x7a,0x4(%rax)
  40292a:	48 8b 45 e0          	mov    -0x20(%rbp),%rax
  40292e:	48 be 53 79 6e 74 61 	movabs $0x45207861746e7953,%rsi
  402935:	78 20 45 
  402938:	48 89 70 08          	mov    %rsi,0x8(%rax)
  40293c:	48 bf 72 72 6f 72 20 	movabs $0x49202d20726f7272,%rdi
  402943:	2d 20 49 
  402946:	48 89 78 10          	mov    %rdi,0x10(%rax)
  40294a:	48 ba 6c 6c 65 67 61 	movabs $0x50206c6167656c6c,%rdx
  402951:	6c 20 50 
  402954:	48 89 50 18          	mov    %rdx,0x18(%rax)
  402958:	48 b9 69 70 65 2f 52 	movabs $0x696465522f657069,%rcx
  40295f:	65 64 69 
  402962:	48 89 48 20          	mov    %rcx,0x20(%rax)
  402966:	48 be 72 65 63 74 20 	movabs $0x6d6f432074636572,%rsi
  40296d:	43 6f 6d 
  402970:	48 89 70 28          	mov    %rsi,0x28(%rax)
  402974:	48 bf 62 69 6e 61 74 	movabs $0x6e6f6974616e6962,%rdi
  40297b:	69 6f 6e 
  40297e:	48 89 78 30          	mov    %rdi,0x30(%rax)
  402982:	48 c7 40 38 2e 00 00 	movq   $0x2e,0x38(%rax)
  402989:	00 
  40298a:	48 c7 40 40 00 00 00 	movq   $0x0,0x40(%rax)
  402991:	00 
  402992:	48 8b 45 e0          	mov    -0x20(%rbp),%rax
  402996:	c7 40 48 00 00 00 00 	movl   $0x0,0x48(%rax)
  40299d:	48 8b 45 e0          	mov    -0x20(%rbp),%rax
  4029a1:	c7 40 4c 00 00 00 00 	movl   $0x0,0x4c(%rax)
  4029a8:	83 45 fc 01          	addl   $0x1,-0x4(%rbp)
  4029ac:	48 8b 45 e8          	mov    -0x18(%rbp),%rax
  4029b0:	8b 40 10             	mov    0x10(%rax),%eax
  4029b3:	3b 45 fc             	cmp    -0x4(%rbp),%eax
  4029b6:	0f 8f 6c fd ff ff    	jg     402728 <CheckPipingRules+0x28>
  4029bc:	90                   	nop
  4029bd:	5d                   	pop    %rbp
  4029be:	c3                   	retq   

00000000004029bf <SppChdir>:
  4029bf:	55                   	push   %rbp
  4029c0:	48 89 e5             	mov    %rsp,%rbp
  4029c3:	48 83 ec 20          	sub    $0x20,%rsp
  4029c7:	48 89 7d e8          	mov    %rdi,-0x18(%rbp)
  4029cb:	48 89 75 e0          	mov    %rsi,-0x20(%rbp)
  4029cf:	48 8b 45 e8          	mov    -0x18(%rbp),%rax
  4029d3:	48 8b 40 08          	mov    0x8(%rax),%rax
  4029d7:	48 8b 40 08          	mov    0x8(%rax),%rax
  4029db:	48 83 c0 08          	add    $0x8,%rax
  4029df:	48 8b 00             	mov    (%rax),%rax
  4029e2:	48 85 c0             	test   %rax,%rax
  4029e5:	0f 85 86 00 00 00    	jne    402a71 <SppChdir+0xb2>
  4029eb:	48 8b 45 e0          	mov    -0x20(%rbp),%rax
  4029ef:	c7 00 01 00 00 00    	movl   $0x1,(%rax)
  4029f5:	48 8b 45 e0          	mov    -0x20(%rbp),%rax
  4029f9:	c7 40 04 f6 01 00 00 	movl   $0x1f6,0x4(%rax)
  402a00:	48 8b 45 e0          	mov    -0x20(%rbp),%rax
  402a04:	48 ba 43 6f 6d 6d 61 	movabs $0x20646e616d6d6f43,%rdx
  402a0b:	6e 64 20 
  402a0e:	48 89 50 08          	mov    %rdx,0x8(%rax)
  402a12:	48 b9 27 63 64 27 20 	movabs $0x7165722027646327,%rcx
  402a19:	72 65 71 
  402a1c:	48 89 48 10          	mov    %rcx,0x10(%rax)
  402a20:	48 be 75 69 65 73 20 	movabs $0x7461702073656975,%rsi
  402a27:	70 61 74 
  402a2a:	48 89 70 18          	mov    %rsi,0x18(%rax)
  402a2e:	48 c7 40 20 68 2e 00 	movq   $0x2e68,0x20(%rax)
  402a35:	00 
  402a36:	48 c7 40 28 00 00 00 	movq   $0x0,0x28(%rax)
  402a3d:	00 
  402a3e:	48 c7 40 30 00 00 00 	movq   $0x0,0x30(%rax)
  402a45:	00 
  402a46:	48 c7 40 38 00 00 00 	movq   $0x0,0x38(%rax)
  402a4d:	00 
  402a4e:	48 c7 40 40 00 00 00 	movq   $0x0,0x40(%rax)
  402a55:	00 
  402a56:	48 8b 45 e0          	mov    -0x20(%rbp),%rax
  402a5a:	c7 40 48 00 00 00 00 	movl   $0x0,0x48(%rax)
  402a61:	48 8b 45 e0          	mov    -0x20(%rbp),%rax
  402a65:	c7 40 4c 00 00 00 00 	movl   $0x0,0x4c(%rax)
  402a6c:	e9 af 00 00 00       	jmpq   402b20 <SppChdir+0x161>
  402a71:	48 8b 45 e8          	mov    -0x18(%rbp),%rax
  402a75:	48 8b 40 08          	mov    0x8(%rax),%rax
  402a79:	48 8b 40 08          	mov    0x8(%rax),%rax
  402a7d:	48 83 c0 08          	add    $0x8,%rax
  402a81:	48 8b 00             	mov    (%rax),%rax
  402a84:	48 89 c7             	mov    %rax,%rdi
  402a87:	e8 04 df ff ff       	callq  400990 <chdir@plt>
  402a8c:	89 45 fc             	mov    %eax,-0x4(%rbp)
  402a8f:	83 7d fc 00          	cmpl   $0x0,-0x4(%rbp)
  402a93:	0f 84 87 00 00 00    	je     402b20 <SppChdir+0x161>
  402a99:	48 8b 45 e0          	mov    -0x20(%rbp),%rax
  402a9d:	c7 00 01 00 00 00    	movl   $0x1,(%rax)
  402aa3:	48 8b 45 e0          	mov    -0x20(%rbp),%rax
  402aa7:	c7 40 04 f5 01 00 00 	movl   $0x1f5,0x4(%rax)
  402aae:	48 8b 45 e0          	mov    -0x20(%rbp),%rax
  402ab2:	48 ba 43 6f 75 6c 64 	movabs $0x6f6e20646c756f43,%rdx
  402ab9:	20 6e 6f 
  402abc:	48 89 50 08          	mov    %rdx,0x8(%rax)
  402ac0:	48 b9 74 20 63 64 20 	movabs $0x206f742064632074,%rcx
  402ac7:	74 6f 20 
  402aca:	48 89 48 10          	mov    %rcx,0x10(%rax)
  402ace:	48 bf 73 70 65 63 69 	movabs $0x6569666963657073,%rdi
  402ad5:	66 69 65 
  402ad8:	48 89 78 18          	mov    %rdi,0x18(%rax)
  402adc:	48 be 64 20 70 61 74 	movabs $0x2e687461702064,%rsi
  402ae3:	68 2e 00 
  402ae6:	48 89 70 20          	mov    %rsi,0x20(%rax)
  402aea:	48 c7 40 28 00 00 00 	movq   $0x0,0x28(%rax)
  402af1:	00 
  402af2:	48 c7 40 30 00 00 00 	movq   $0x0,0x30(%rax)
  402af9:	00 
  402afa:	48 c7 40 38 00 00 00 	movq   $0x0,0x38(%rax)
  402b01:	00 
  402b02:	48 c7 40 40 00 00 00 	movq   $0x0,0x40(%rax)
  402b09:	00 
  402b0a:	48 8b 45 e0          	mov    -0x20(%rbp),%rax
  402b0e:	c7 40 48 00 00 00 00 	movl   $0x0,0x48(%rax)
  402b15:	48 8b 45 e0          	mov    -0x20(%rbp),%rax
  402b19:	c7 40 4c 00 00 00 00 	movl   $0x0,0x4c(%rax)
  402b20:	90                   	nop
  402b21:	c9                   	leaveq 
  402b22:	c3                   	retq   

0000000000402b23 <SppExit>:
  402b23:	55                   	push   %rbp
  402b24:	48 89 e5             	mov    %rsp,%rbp
  402b27:	48 89 7d f8          	mov    %rdi,-0x8(%rbp)
  402b2b:	48 89 75 f0          	mov    %rsi,-0x10(%rbp)
  402b2f:	48 8b 45 f0          	mov    -0x10(%rbp),%rax
  402b33:	c7 00 00 00 00 00    	movl   $0x0,(%rax)
  402b39:	48 8b 45 f0          	mov    -0x10(%rbp),%rax
  402b3d:	c7 40 04 00 00 00 00 	movl   $0x0,0x4(%rax)
  402b44:	48 8b 45 f0          	mov    -0x10(%rbp),%rax
  402b48:	48 bf 47 6f 6f 64 62 	movabs $0x21657962646f6f47,%rdi
  402b4f:	79 65 21 
  402b52:	48 89 78 08          	mov    %rdi,0x8(%rax)
  402b56:	48 c7 40 10 00 00 00 	movq   $0x0,0x10(%rax)
  402b5d:	00 
  402b5e:	48 83 c0 18          	add    $0x18,%rax
  402b62:	b9 30 00 00 00       	mov    $0x30,%ecx
  402b67:	be 00 00 00 00       	mov    $0x0,%esi
  402b6c:	48 89 30             	mov    %rsi,(%rax)
  402b6f:	89 ca                	mov    %ecx,%edx
  402b71:	48 01 c2             	add    %rax,%rdx
  402b74:	48 83 c2 08          	add    $0x8,%rdx
  402b78:	48 89 72 f0          	mov    %rsi,-0x10(%rdx)
  402b7c:	48 8d 50 08          	lea    0x8(%rax),%rdx
  402b80:	48 83 e2 f8          	and    $0xfffffffffffffff8,%rdx
  402b84:	48 29 d0             	sub    %rdx,%rax
  402b87:	01 c1                	add    %eax,%ecx
  402b89:	83 e1 f8             	and    $0xfffffff8,%ecx
  402b8c:	89 c8                	mov    %ecx,%eax
  402b8e:	c1 e8 03             	shr    $0x3,%eax
  402b91:	89 c1                	mov    %eax,%ecx
  402b93:	48 89 d7             	mov    %rdx,%rdi
  402b96:	48 89 f0             	mov    %rsi,%rax
  402b99:	f3 48 ab             	rep stos %rax,%es:(%rdi)
  402b9c:	48 8b 45 f0          	mov    -0x10(%rbp),%rax
  402ba0:	c7 40 48 01 00 00 00 	movl   $0x1,0x48(%rax)
  402ba7:	48 8b 45 f0          	mov    -0x10(%rbp),%rax
  402bab:	c7 40 4c 00 00 00 00 	movl   $0x0,0x4c(%rax)
  402bb2:	90                   	nop
  402bb3:	5d                   	pop    %rbp
  402bb4:	c3                   	retq   

0000000000402bb5 <SppHelp>:
  402bb5:	55                   	push   %rbp
  402bb6:	48 89 e5             	mov    %rsp,%rbp
  402bb9:	48 83 ec 10          	sub    $0x10,%rsp
  402bbd:	48 89 7d f8          	mov    %rdi,-0x8(%rbp)
  402bc1:	48 89 75 f0          	mov    %rsi,-0x10(%rbp)
  402bc5:	bf b8 2d 40 00       	mov    $0x402db8,%edi
  402bca:	e8 a1 dd ff ff       	callq  400970 <puts@plt>
  402bcf:	bf c1 2d 40 00       	mov    $0x402dc1,%edi
  402bd4:	e8 97 dd ff ff       	callq  400970 <puts@plt>
  402bd9:	bf d0 2d 40 00       	mov    $0x402dd0,%edi
  402bde:	e8 8d dd ff ff       	callq  400970 <puts@plt>
  402be3:	90                   	nop
  402be4:	c9                   	leaveq 
  402be5:	c3                   	retq   
  402be6:	66 2e 0f 1f 84 00 00 	nopw   %cs:0x0(%rax,%rax,1)
  402bed:	00 00 00 

0000000000402bf0 <__libc_csu_init>:
  402bf0:	41 57                	push   %r15
  402bf2:	41 56                	push   %r14
  402bf4:	41 89 ff             	mov    %edi,%r15d
  402bf7:	41 55                	push   %r13
  402bf9:	41 54                	push   %r12
  402bfb:	4c 8d 25 0e 12 20 00 	lea    0x20120e(%rip),%r12        # 603e10 <__frame_dummy_init_array_entry>
  402c02:	55                   	push   %rbp
  402c03:	48 8d 2d 0e 12 20 00 	lea    0x20120e(%rip),%rbp        # 603e18 <__init_array_end>
  402c0a:	53                   	push   %rbx
  402c0b:	49 89 f6             	mov    %rsi,%r14
  402c0e:	49 89 d5             	mov    %rdx,%r13
  402c11:	4c 29 e5             	sub    %r12,%rbp
  402c14:	48 83 ec 08          	sub    $0x8,%rsp
  402c18:	48 c1 fd 03          	sar    $0x3,%rbp
  402c1c:	e8 ff dc ff ff       	callq  400920 <_init>
  402c21:	48 85 ed             	test   %rbp,%rbp
  402c24:	74 20                	je     402c46 <__libc_csu_init+0x56>
  402c26:	31 db                	xor    %ebx,%ebx
  402c28:	0f 1f 84 00 00 00 00 	nopl   0x0(%rax,%rax,1)
  402c2f:	00 
  402c30:	4c 89 ea             	mov    %r13,%rdx
  402c33:	4c 89 f6             	mov    %r14,%rsi
  402c36:	44 89 ff             	mov    %r15d,%edi
  402c39:	41 ff 14 dc          	callq  *(%r12,%rbx,8)
  402c3d:	48 83 c3 01          	add    $0x1,%rbx
  402c41:	48 39 eb             	cmp    %rbp,%rbx
  402c44:	75 ea                	jne    402c30 <__libc_csu_init+0x40>
  402c46:	48 83 c4 08          	add    $0x8,%rsp
  402c4a:	5b                   	pop    %rbx
  402c4b:	5d                   	pop    %rbp
  402c4c:	41 5c                	pop    %r12
  402c4e:	41 5d                	pop    %r13
  402c50:	41 5e                	pop    %r14
  402c52:	41 5f                	pop    %r15
  402c54:	c3                   	retq   
  402c55:	90                   	nop
  402c56:	66 2e 0f 1f 84 00 00 	nopw   %cs:0x0(%rax,%rax,1)
  402c5d:	00 00 00 

0000000000402c60 <__libc_csu_fini>:
  402c60:	f3 c3                	repz retq 

Disassembly of section .fini:

0000000000402c64 <_fini>:
  402c64:	48 83 ec 08          	sub    $0x8,%rsp
  402c68:	48 83 c4 08          	add    $0x8,%rsp
  402c6c:	c3                   	retq   
